(lp1
S'Chelsea3encountersWins'
p2
aS'Liverpool3encountersWins'
p3
aS'Tottenham3encountersWins'
p4
aS'Man City3encountersWins'
p5
aS'Man United3encountersWins'
p6
aS'Wigan3encountersWins'
p7
aS'Everton3encountersWins'
p8
aS'Sunderland3encountersWins'
p9
aS'3AllWins'
p10
aS'3Wins'
p11
aS'Chelsea3encountersLosses'
p12
aS'Liverpool3encountersLosses'
p13
aS'Tottenham3encountersLosses'
p14
aS'Man City3encountersLosses'
p15
aS'Man United3encountersLosses'
p16
aS'Wigan3encountersLosses'
p17
aS'Everton3encountersLosses'
p18
aS'Sunderland3encountersLosses'
p19
aS'3AllLosses'
p20
aS'3Losses'
p21
aS'Chelsea3encountersDraws'
p22
aS'Liverpool3encountersDraws'
p23
aS'Tottenham3encountersDraws'
p24
aS'Man City3encountersDraws'
p25
aS'Man United3encountersDraws'
p26
aS'Wigan3encountersDraws'
p27
aS'Everton3encountersDraws'
p28
aS'Sunderland3encountersDraws'
p29
aS'3AllDraws'
p30
aS'3Draws'
p31
aS'3FTGoals'
p32
aS'3HTGoals'
p33
aS'3Shots'
p34
aS'3ShotsOnTarget'
p35
aS'3Corners'
p36
aS'3Fouls'
p37
aS'3Yellows'
p38
aS'3Reds'
p39
aS'PtsDiff'
p40
aS'distance'
p41
aS'result'
p42
aS'BetResult'
p43
aS'Date'
p44
aS'HomeTeam'
p45
aS'AwayTeam'
p46
a.