(lp1
S'3Wins'
p2
aS'3Losses'
p3
aS'3Draws'
p4
aS'3All'
p5
aS'3FTGoals'
p6
aS'3HTGoals'
p7
aS'3Shots'
p8
aS'3ShotsOnTarget'
p9
aS'3Corners'
p10
aS'3Fouls'
p11
aS'3Yellows'
p12
aS'3Reds'
p13
aS'result'
p14
a.