(dp1
S'Aston Villa'
p2
(lp3
(lp4
F1
aF2.6666666666666665
aF0.33333333333333331
aF0.33333333333333331
aNaF1
aF0.33333333333333331
aF2.6666666666666665
aF0
aF0
aF-1.3333333333333333
aF-0.33333333333333331
aF-1
aF-1.6666666666666667
aNaF0
aF0
aF0
aF0
aF0
aF0.33333333333333331
aF-0.33333333333333331
aF0
aF0
aNaF-0.33333333333333331
aF-1
aF-1.3333333333333333
aF0
aF0
aF0
aF0
aF101.33333333333337
aF-41.000000000000014
aF50.666666666666671
aF71.999999999999972
aF2.333333333333333
aF0
aI5405
aF109.52360384404703
aS'H'
aS'H'
acdatetime
date
p5
(S'\x07\xdd\x04\x16'
tRp6
aS'Man United'
p7
ag2
aa(lp8
F0
aF-0.33333333333333331
aF1.3333333333333333
aF0.33333333333333331
aF0.33333333333333331
aF0
aNaF1
aF0.33333333333333331
aF0.33333333333333331
aF0
aF1
aF-1
aF-2.6666666666666665
aF-2.6666666666666665
aF-0.33333333333333331
aNaF0
aF-1.3333333333333333
aF0
aF0
aF0
aF-0.33333333333333331
aF0.33333333333333331
aF0.33333333333333331
aF1
aNaF-1
aF1
aF-1
aF-1.6666666666666667
aF0
aF0
aF-26.666666666666671
aF-25.333333333333343
aF-45.333333333333314
aF-25.666666666666668
aF0
aI1281
aF126.23065894863628
aS'D'
aS'H'
ag5
(S'\x07\xdd\x02\x02'
tRp9
aS'Everton'
p10
aS'Aston Villa'
p11
aa(lp12
F-1
aF-1
aF-1.3333333333333333
aF0
aNaF-1
aF-0.33333333333333331
aF-2.6666666666666665
aF-2.6666666666666665
aF-2.6666666666666665
aF0.33333333333333331
aF0.33333333333333331
aF1
aF0
aNaF-0.33333333333333331
aF0
aF0
aF0.33333333333333331
aF0
aF0
aF0
aF0.33333333333333331
aF0
aNaF1.3333333333333333
aF1
aF1.3333333333333333
aF0.33333333333333331
aF1.3333333333333333
aF-25.666666666666668
aF-8
aF-298.66666666666663
aF-86.333333333333343
aF-9.6666666666666714
aF170.33333333333337
aF-5
aF0.33333333333333331
aI-495
aF109.52360384404703
aS'A'
aS'A'
ag5
(S'\x07\xdc\x0b\n'
tRp13
aS'Aston Villa'
p14
aS'Man United'
p15
aa(lp16
F1
aF0
aF1.3333333333333333
aF0
aNaF1
aF1.3333333333333333
aF1.3333333333333333
aF1.3333333333333333
aF3
aF-0.33333333333333331
aF0
aF-3
aF-1
aNaF0.33333333333333331
aF0
aF-1.3333333333333333
aF0
aF-0.33333333333333331
aF0
aF0
aF0.33333333333333331
aF0.33333333333333331
aNaF-1.3333333333333333
aF-2.6666666666666665
aF0
aF-1.3333333333333333
aF-1.3333333333333333
aF0
aF-1
aF558.33333333333337
aF136
aF126.66666666666667
aF21
aF-3.0000000000000009
aF0
aI5016
aF109.52360384404703
aS'H'
aS'H'
ag5
(S'\x07\xdc\x04\x0f'
tRp17
aS'Man United'
p18
aS'Aston Villa'
p19
aa(lp20
F0
aF0
aF-0.33333333333333331
aF-1
aF0
aF1
aNaF-0.33333333333333331
aF0
aF-0.33333333333333331
aF-0.33333333333333331
aF1
aF2.6666666666666665
aF1
aF0
aF0
aNaF1.3333333333333333
aF-1
aF2.6666666666666665
aF1
aF-0.33333333333333331
aF-0.33333333333333331
aF0
aF0
aF-1
aNaF-1
aF0.33333333333333331
aF-0.33333333333333331
aF1.6666666666666667
aF0.33333333333333331
aF-44
aF-10.333333333333329
aF91.000000000000014
aF85.333333333333314
aF-9
aF0
aI-47
aF126.23065894863628
aS'D'
aS'H'
ag5
(S'\x07\xdc\x01\x0e'
tRp21
aS'Aston Villa'
p22
aS'Everton'
p23
aa(lp24
F-1.3333333333333333
aF0
aF-1.3333333333333333
aF0
aNaF-1.6666666666666667
aF-1
aF-1.3333333333333333
aF-1
aF0
aF0
aF1
aF3
aF1
aNaF0
aF0
aF1.3333333333333333
aF0.33333333333333331
aF0.33333333333333331
aF1.3333333333333333
aF-0.33333333333333331
aF-0.33333333333333331
aF-0.33333333333333331
aNaF0.33333333333333331
aF1
aF0
aF0
aF-0.33333333333333331
aF0
aF-1
aF-641.66666666666663
aF-239.99999999999997
aF-45.333333333333329
aF120
aF14.999999999999998
aF0
aI-644
aF109.52360384404703
aS'A'
aS'A'
ag5
(S'\x07\xdb\x0c\x03'
tRp25
aS'Aston Villa'
p26
aS'Man United'
p27
aa(lp28
F0.33333333333333331
aF0
aF0.33333333333333331
aF2.6666666666666665
aF0.33333333333333331
aF0
aNaF1.3333333333333333
aF1
aF1.3333333333333333
aF-0.33333333333333331
aF-1
aF-1
aF-1.3333333333333333
aF0
aF-0.33333333333333331
aNaF-1.3333333333333333
aF-1.3333333333333333
aF-1.3333333333333333
aF0
aF0.33333333333333331
aF0
aF0
aF-1
aF0.33333333333333331
aNaF0
aF0.33333333333333331
aF0
aF-3.6666666666666661
aF5
aF224.00000000000006
aF173.33333333333331
aF-43
aF156.33333333333331
aF13.333333333333332
aF0
aI511
aF126.23065894863628
aS'D'
aS'H'
ag5
(S'\x07\xdb\x04\x02'
tRp29
aS'Everton'
p30
aS'Aston Villa'
p31
aa(lp32
F0
aF1
aF1.3333333333333333
aF1
aNaF1.6666666666666667
aF0
aF1.3333333333333333
aF0
aF2.6666666666666665
aF1.6666666666666667
aF-1
aF-1.3333333333333333
aF-1.3333333333333333
aNaF-0.33333333333333331
aF0.33333333333333331
aF-1.3333333333333333
aF0
aF0
aF-1.3333333333333333
aF0
aF0
aF0.33333333333333331
aNaF0
aF-1
aF0
aF0
aF-1.3333333333333333
aF16
aF2.6666666666666665
aF351.00000000000006
aF78.333333333333343
aF63.999999999999993
aF0
aF0
aF0.33333333333333331
aI1817
aF109.52360384404703
aS'H'
aS'H'
ag5
(S'\x07\xdb\x02\x01'
tRp33
aS'Man United'
p34
aS'Aston Villa'
p35
aa(lp36
F0.33333333333333331
aF-0.83333333333333326
aF-3
aF-1.3333333333333333
aNaF-1.5
aF0
aF0
aF-1
aF0
aF-1.6666666666666667
aF0.16666666666666669
aF0.33333333333333331
aF0.5
aNaF0.5
aF-0.33333333333333331
aF0.33333333333333331
aF0
aF0
aF0.33333333333333331
aF0
aF1.3333333333333333
aF0.16666666666666669
aNaF0
aF1
aF-1
aF1
aF0
aF0
aF0
aF53.333333333333371
aF-15.666666666666657
aF48
aF-108
aF2.333333333333333
aF0
aI-320
aF109.52360384404703
aS'D'
aS'A'
ag5
(S'\x07\xda\x0b\r'
tRp37
aS'Aston Villa'
p38
aS'Man United'
p39
aa(lp40
F0
aF0.5
aF0
aF-2
aF0
aF-1.5
aNaF0
aF0
aF0
aF0.5
aF-1.5
aF-0.5
aF0
aF-0.5
aF0.5
aNaF0
aF0.33333333333333331
aF0
aF-0.5
aF0
aF1.5
aF1
aF0.5
aF0
aNaF0
aF-1
aF0
aF-2.333333333333333
aF1.6666666666666667
aF-267.66666666666669
aF-100.33333333333334
aF77
aF-88.333333333333314
aF-7.0000000000000009
aF0
aI416
aF126.23065894863628
aS'D'
aS'H'
ag5
(S'\x07\xda\x04\x0e'
tRp41
aS'Aston Villa'
p42
aS'Everton'
p43
aa(lp44
F1
aF0.5
aF-1
aF-1
aNaF-2
aF-1
aF1
aF-2.6666666666666665
aF-1.3333333333333333
aF-1
aF-0.5
aF0
aF0
aNaF1
aF0
aF0
aF0
aF0.33333333333333331
aF0
aF0
aF2
aF1
aNaF0
aF1
aF-1
aF1.3333333333333333
aF1
aF-46.666666666666664
aF-7.0000000000000009
aF-840
aF-204.99999999999997
aF-215
aF402.33333333333337
aF4
aF0
aI-1455
aF109.52360384404703
aS'D'
aS'A'
ag5
(S'\x07\xda\x02\n'
tRp45
aS'Aston Villa'
p46
aS'Man United'
p47
aa(lp48
F-1
aF-1
aF1
aF1
aNaF1
aF1
aF0
aF2.6666666666666665
aF3
aF1
aF1
aF0
aF0
aNaF-1
aF0
aF0
aF0
aF-0.33333333333333331
aF0
aF0
aF-1
aF-1
aNaF0
aF-1
aF1
aF-1.3333333333333333
aF-1.3333333333333333
aF32
aF0
aF359.66666666666669
aF214.66666666666669
aF88.333333333333314
aF-156.33333333333331
aF-4.3333333333333321
aF0
aI480
aF109.52360384404703
aS'A'
aS'H'
ag5
(S'\x07\xd9\x0c\x0c'
tRp49
aS'Man United'
p50
aS'Aston Villa'
p51
aa(lp52
F-1
aF-1
aF0
aF0
aF0
aF1
aNaF0
aF-0.33333333333333331
aF0
aF0
aF0
aF0
aF0
aF0
aF-1
aNaF0
aF0.33333333333333331
aF-0.33333333333333331
aF0
aF0
aF0
aF-1
aF0
aF0
aNaF0
aF0
aF1
aF0
aF-1
aF651.66666666666674
aF265
aF72
aF-449.66666666666663
aF-5.3333333333333339
aF0
aI-168
aF126.23065894863628
aS'D'
aS'H'
ag5
(S'\x07\xd9\n\x1f'
tRp53
aS'Everton'
p54
aS'Aston Villa'
p55
aasS'Reading'
p56
(lp57
(lp58
F1.3333333333333333
aF3
aF0.33333333333333331
aF0.33333333333333331
aNaF1.3333333333333333
aF-0.16666666666666669
aF2.5
aF3
aF2.6666666666666665
aF-0.5
aF-1
aF-1.6666666666666667
aF0.33333333333333326
aNaF-1.6666666666666667
aF-0.16666666666666669
aF-0.5
aF-3
aF-1.3333333333333333
aF-0.16666666666666669
aF0
aF0.33333333333333331
aF0
aNaF0
aF0.33333333333333331
aF0
aF0
aF0
aF20
aF5
aF151.66666666666669
aF151.66666666666666
aF0
aF-32
aF-5.333333333333333
aF-0.33333333333333331
aI4512
aF243.636982300981
aS'H'
aS'H'
ag5
(S'\x07\xdd\x03\x10'
tRp59
aS'Man United'
p60
ag56
aa(lp61
F0.33333333333333331
aF0
aF1.3333333333333333
aF0.33333333333333331
aF0.33333333333333331
aF0.33333333333333331
aNaF0.83333333333333326
aF-0.33333333333333331
aF0
aF0.83333333333333326
aF0.33333333333333326
aF-1.6666666666666667
aF-0.66666666666666674
aF-0.66666666666666674
aF-2
aNaF-0.5
aF0
aF-1.3333333333333333
aF-0.5
aF0.33333333333333331
aF0
aF0.33333333333333331
aF0.33333333333333331
aF1.3333333333333333
aNaF0.33333333333333331
aF0.33333333333333331
aF1.3333333333333333
aF2.333333333333333
aF1
aF441
aF192
aF185
aF0
aF4
aF-0.33333333333333331
aI1235
aF261.44999534816731
aS'H'
aS'H'
ag5
(S'\x07\xdd\x03\x02'
tRp62
aS'Everton'
p63
aS'Reading'
p64
aa(lp65
F-1.3333333333333333
aF-1.3333333333333333
aF-1.3333333333333333
aF-0.33333333333333331
aNaF-1.3333333333333333
aF0.66666666666666674
aF-3
aF-1
aF-1
aF1
aF1
aF0.66666666666666674
aF-1.3333333333333333
aNaF0.66666666666666674
aF-0.33333333333333331
aF0
aF1
aF-0.33333333333333331
aF-0.33333333333333331
aF-0.33333333333333331
aF0
aF0
aNaF0
aF-0.33333333333333331
aF0
aF0
aF1.3333333333333333
aF0
aF0
aF-326.33333333333337
aF-207.99999999999997
aF-150.33333333333334
aF75
aF0
aF0
aI-1008
aF243.636982300981
aS'A'
aS'A'
ag5
(S'\x07\xdc\x0c\x01'
tRp66
aS'Reading'
p67
aS'Man United'
p68
aa(lp69
F-1.3333333333333333
aF0
aF-1.3333333333333333
aF-1.3333333333333333
aF-0.33333333333333331
aF-0.33333333333333331
aNaF-1.3333333333333333
aF-0.33333333333333331
aF0
aF0.66666666666666674
aF-0.33333333333333326
aF0.66666666666666674
aF-0.33333333333333331
aF-0.33333333333333331
aF0
aNaF0
aF0
aF0
aF0
aF-0.33333333333333331
aF0
aF0
aF-0.33333333333333331
aF-1.3333333333333333
aNaF-0.33333333333333331
aF1.6666666666666667
aF0
aF-6.666666666666667
aF0
aF-626.99999999999989
aF-229.66666666666666
aF0
aF-207
aF-9
aF0
aI-364
aF261.44999534816731
aS'H'
aS'A'
ag5
(S'\x07\xdc\x0b\x11'
tRp70
aS'Reading'
p71
aS'Everton'
p72
aasS'Swansea'
p73
(lp74
(lp75
F0.33333333333333331
aF-0.33333333333333331
aF1.3333333333333333
aF0
aF0.33333333333333331
aF-1
aNaF1.3333333333333333
aF1
aF1
aF1
aF1.3333333333333333
aF-1
aF-1
aF-1
aF0
aNaF-0.33333333333333331
aF0.33333333333333331
aF0
aF-1.3333333333333333
aF-1
aF-0.33333333333333331
aF0.33333333333333331
aF0
aF1
aNaF-1
aF-1.3333333333333333
aF-0.33333333333333331
aF3.0000000000000009
aF0
aF-184.33333333333337
aF-78.333333333333343
aF117
aF-111.66666666666669
aF7.0000000000000009
aF0
aI455
aF210.13854728468442
aS'D'
aS'H'
ag5
(S'\x07\xdd\x01\x0c'
tRp76
aS'Everton'
p77
ag73
aa(lp78
F-1.3333333333333333
aF-1
aF-1.3333333333333333
aF0
aNaF0
aF-0.33333333333333331
aF-3
aF-2.6666666666666665
aF-1
aF0.33333333333333331
aF0
aF1
aF0
aNaF-0.33333333333333331
aF2.6666666666666665
aF0.33333333333333331
aF1.3333333333333333
aF0
aF1
aF1
aF0.33333333333333331
aF0
aNaF0.33333333333333331
aF-0.33333333333333331
aF1.3333333333333333
aF0
aF0.33333333333333331
aF-25
aF-21.333333333333332
aF93.333333333333314
aF68.000000000000014
aF17.333333333333329
aF-105
aF3.0000000000000009
aF0
aI-1235
aF230.85014201971234
aS'D'
aS'A'
ag5
(S'\x07\xdc\x0c\x17'
tRp79
aS'Swansea'
p80
aS'Man United'
p81
aa(lp82
F1.3333333333333333
aF0.33333333333333331
aF1.3333333333333333
aF-0.16666666666666669
aNaF0.83333333333333326
aF1.3333333333333333
aF1.3333333333333333
aF0
aF1.3333333333333333
aF-0.5
aF0.33333333333333331
aF-0.5
aF0.83333333333333326
aNaF0.33333333333333331
aF-2
aF-0.5
aF0.33333333333333331
aF-1.3333333333333333
aF-0.16666666666666669
aF-0.66666666666666674
aF-0.16666666666666669
aF0
aNaF-0.5
aF0.33333333333333331
aF-0.16666666666666669
aF-1
aF0
aF0
aF-13.333333333333332
aF62.666666666666629
aF19
aF71.666666666666671
aF143.99999999999997
aF9
aF0
aI4953
aF230.85014201971234
aS'H'
aS'H'
ag5
(S'\x07\xdc\x05\x06'
tRp83
aS'Man United'
p84
aS'Swansea'
p85
aa(lp86
F-1.3333333333333333
aF0
aF-1.3333333333333333
aF-0.83333333333333326
aF0
aF0.16666666666666669
aNaF-0.33333333333333331
aF2.6666666666666665
aF0.33333333333333331
aF0.16666666666666669
aF-1.3333333333333333
aF-0.33333333333333331
aF0.16666666666666669
aF-0.33333333333333326
aF0
aNaF0.5
aF-1.3333333333333333
aF0
aF0.5
aF0.66666666666666674
aF1
aF0
aF-0.33333333333333331
aF-0.83333333333333326
aNaF-0.83333333333333326
aF0
aF-1
aF11.666666666666666
aF1
aF153
aF100
aF35
aF-143.99999999999997
aF-20
aF0.33333333333333331
aI152
aF210.13854728468442
aS'A'
aS'H'
ag5
(S'\x07\xdc\x03\x18'
tRp87
aS'Swansea'
p88
aS'Everton'
p89
aa(lp90
F0.33333333333333331
aF0.33333333333333331
aF0.33333333333333331
aF1.3333333333333333
aF0
aF0.33333333333333331
aNaF1.3333333333333333
aF-0.33333333333333331
aF0.33333333333333331
aF-0.66666666666666674
aF0.33333333333333331
aF0.33333333333333331
aF-0.66666666666666674
aF0.33333333333333326
aF0
aNaF0
aF1
aF0
aF0.33333333333333331
aF-0.66666666666666674
aF0.33333333333333331
aF0
aF0.33333333333333331
aF0.33333333333333326
aNaF-0.66666666666666674
aF0
aF-1
aF-5
aF-0.33333333333333331
aF425.00000000000006
aF77
aF202.66666666666666
aF115
aF0
aF-0.33333333333333331
aI-35
aF210.13854728468442
aS'H'
aS'H'
ag5
(S'\x07\xdb\x0c\x15'
tRp91
aS'Everton'
p92
aS'Swansea'
p93
aa(lp94
F-1.3333333333333333
aF-0.33333333333333331
aF-1.3333333333333333
aF-0.33333333333333331
aNaF-3
aF-1.3333333333333333
aF-1.3333333333333333
aF-1
aF2.6666666666666665
aF0.66666666666666674
aF-0.33333333333333331
aF0
aF0.66666666666666674
aNaF0
aF0
aF0
aF-0.33333333333333331
aF0
aF0
aF0.66666666666666674
aF-0.33333333333333331
aF-0.33333333333333331
aNaF1
aF-0.33333333333333331
aF0.66666666666666674
aF1.3333333333333333
aF-1.3333333333333333
aF5.3333333333333339
aF0
aF289.66666666666669
aF103.99999999999997
aF177.66666666666669
aF-71.999999999999972
aF0
aF-0.33333333333333331
aI-507
aF230.85014201971234
aS'A'
aS'A'
ag5
(S'\x07\xdb\x0b\x13'
tRp95
aS'Swansea'
p96
aS'Man United'
p97
aasS'Norwich'
p98
(lp99
(lp100
F1.3333333333333333
aF3
aF0
aF0.33333333333333331
aNaF1
aF0
aF1.6666666666666667
aF2.6666666666666665
aF3
aF-1.3333333333333333
aF-3
aF0.33333333333333331
aF-1.6666666666666667
aNaF0.33333333333333331
aF0.33333333333333331
aF-0.33333333333333331
aF0
aF-1.3333333333333333
aF0
aF0
aF-1
aF0
aNaF-1.3333333333333333
aF-1
aF0
aF-1.3333333333333333
aF-0.33333333333333331
aF7.0000000000000009
aF3
aF-75
aF-64
aF12.333333333333329
aF-312
aF-21
aF0
aI3600
aF258.17584532935979
aS'H'
aS'H'
ag5
(S'\x07\xdd\x03\x02'
tRp101
aS'Man United'
p102
ag98
aa(lp103
F-0.33333333333333331
aF0
aF-1
aF-0.33333333333333331
aF0
aF0
aNaF0
aF-0.33333333333333331
aF-0.33333333333333331
aF0
aF1.6666666666666667
aF-0.33333333333333331
aF2.6666666666666665
aF1
aF0
aNaF0.33333333333333331
aF-0.33333333333333331
aF-0.33333333333333331
aF0.33333333333333331
aF-0.33333333333333331
aF1.3333333333333333
aF-0.33333333333333331
aF-0.33333333333333331
aF0
aNaF-0.33333333333333331
aF2.6666666666666665
aF2.6666666666666665
aF-8
aF-2.6666666666666665
aF-131.66666666666669
aF-61.333333333333343
aF-160
aF424.33333333333337
aF37.333333333333336
aF0
aI-923
aF299.9185476421498
aS'H'
aS'A'
ag5
(S'\x07\xdd\x02\x17'
tRp104
aS'Norwich'
p105
aS'Everton'
p106
aa(lp107
F1.3333333333333333
aF0
aF1
aF1.3333333333333333
aF0
aF0.33333333333333331
aNaF0.83333333333333326
aF-1
aF1.3333333333333333
aF-1
aF0
aF0
aF-1.6666666666666667
aF-1
aF0
aNaF-0.5
aF0.33333333333333331
aF-0.33333333333333331
aF-0.33333333333333331
aF0
aF-0.33333333333333331
aF0
aF0.33333333333333331
aF-0.66666666666666674
aNaF0.33333333333333331
aF0
aF-1
aF7.0000000000000009
aF0
aF981.66666666666674
aF346.66666666666669
aF213.33333333333331
aF-71
aF4
aF0
aI204
aF299.9185476421498
aS'D'
aS'H'
ag5
(S'\x07\xdc\x0b\x18'
tRp108
aS'Everton'
p109
aS'Norwich'
p110
aa(lp111
F-1.3333333333333333
aF-1.3333333333333333
aF-1
aF-0.33333333333333331
aNaF-1.3333333333333333
aF-0.33333333333333331
aF-2.5
aF-2.6666666666666665
aF-1.6666666666666667
aF1.3333333333333333
aF1.3333333333333333
aF0
aF0.66666666666666674
aNaF-0.33333333333333331
aF-0.33333333333333331
aF0.5
aF0
aF0.33333333333333331
aF0
aF0
aF0.33333333333333331
aF0
aNaF2
aF1.6666666666666667
aF0
aF1.3333333333333333
aF0
aF-20
aF-2.6666666666666665
aF-156
aF-50.666666666666671
aF25.333333333333343
aF65
aF-20
aF0
aI-608
aF258.17584532935979
aS'H'
aS'A'
ag5
(S'\x07\xdc\x0b\x11'
tRp112
aS'Norwich'
p113
aS'Man United'
p114
aa(lp115
F-1.3333333333333333
aF0
aF-1.3333333333333333
aF-1.3333333333333333
aF0
aF-0.33333333333333331
aNaF0.16666666666666669
aF-1
aF0
aF0.16666666666666669
aF-1.3333333333333333
aF0.66666666666666674
aF0.66666666666666674
aF0.66666666666666674
aF0
aNaF0.5
aF1
aF0
aF0.5
aF0.66666666666666674
aF0
aF0
aF-0.33333333333333331
aF0.66666666666666674
aNaF-1.3333333333333333
aF0
aF0
aF-2.333333333333333
aF1
aF135.00000000000006
aF71.666666666666671
aF48.333333333333329
aF176
aF4.3333333333333321
aF0.33333333333333331
aI-328
aF299.9185476421498
aS'D'
aS'A'
ag5
(S'\x07\xdc\x04\x07'
tRp116
aS'Norwich'
p117
aS'Everton'
p118
aa(lp119
F-1.3333333333333333
aF-0.33333333333333331
aF-1.3333333333333333
aF-0.33333333333333331
aNaF-3
aF-1.3333333333333333
aF-0.83333333333333326
aF0
aF0
aF0.5
aF-0.33333333333333331
aF1
aF0.66666666666666674
aNaF0
aF0
aF0.5
aF0.33333333333333331
aF-0.33333333333333331
aF0.16666666666666669
aF0.66666666666666674
aF-0.33333333333333331
aF-0.33333333333333331
aNaF1
aF0.66666666666666674
aF-0.33333333333333331
aF-0.33333333333333331
aF1
aF-7.9999999999999982
aF-0.33333333333333331
aF469.33333333333337
aF15.666666666666657
aF-12.333333333333329
aF0
aF0
aF0
aI-2139
aF258.17584532935979
aS'A'
aS'A'
ag5
(S'\x07\xdc\x02\x1a'
tRp120
aS'Norwich'
p121
aS'Man United'
p122
aa(lp123
F0.33333333333333331
aF0.33333333333333331
aF0.33333333333333331
aF1.3333333333333333
aF0
aF0.33333333333333331
aNaF0.33333333333333326
aF-1
aF0.33333333333333331
aF-0.66666666666666674
aF0.33333333333333331
aF0.33333333333333331
aF-0.66666666666666674
aF0.33333333333333326
aF0
aNaF0
aF1
aF0
aF0.33333333333333331
aF-0.66666666666666674
aF0.33333333333333331
aF0
aF0.33333333333333331
aF0.33333333333333326
aNaF0.33333333333333331
aF0
aF-0.33333333333333331
aF-14.999999999999998
aF-1.3333333333333333
aF45.333333333333314
aF-26.666666666666671
aF11.666666666666671
aF161
aF-5.3333333333333339
aF0
aI-105
aF299.9185476421498
aS'D'
aS'H'
ag5
(S'\x07\xdb\x0c\x11'
tRp124
aS'Everton'
p125
aS'Norwich'
p126
aa(lp127
F1.3333333333333333
aF1.3333333333333333
aF1.3333333333333333
aF1.3333333333333333
aNaF3
aF0.33333333333333331
aF0.33333333333333326
aF0
aF2
aF-0.66666666666666674
aF0.33333333333333331
aF0
aF0
aNaF0
aF0.33333333333333331
aF0
aF-0.33333333333333331
aF0
aF0
aF0
aF0.33333333333333331
aF0.33333333333333331
aNaF-1
aF0.33333333333333331
aF0.33333333333333331
aF0.33333333333333331
aF0
aF21.666666666666668
aF13.333333333333332
aF-25.666666666666686
aF100.33333333333334
aF24
aF-72
aF-4
aF0
aI192
aF258.17584532935979
aS'H'
aS'H'
ag5
(S'\x07\xdb\n\x01'
tRp128
aS'Man United'
p129
aS'Norwich'
p130
aasS'Bolton'
p131
(lp132
(lp133
F1.3333333333333333
aF0.33333333333333331
aF1
aF0.33333333333333331
aNaF2.6666666666666665
aF0
aF1.3333333333333333
aF0
aF0
aF-2.6666666666666665
aF-2.6666666666666665
aF-1.3333333333333333
aF-2.6666666666666665
aNaF0
aF-0.33333333333333331
aF-3
aF1
aF0
aF0
aF0.33333333333333331
aF0.33333333333333331
aF0.33333333333333331
aNaF-1.3333333333333333
aF0.33333333333333331
aF0.33333333333333331
aF-0.33333333333333331
aF0
aF13.333333333333332
aF1
aF520
aF141
aF224
aF88
aF6.666666666666667
aF0
aI1769
aF20.773967847011392
aS'H'
aS'H'
ag5
(S'\x07\xdc\x01\x0e'
tRp134
aS'Man United'
p135
ag131
aa(lp136
F0.33333333333333331
aF0.33333333333333331
aF0
aF1.3333333333333333
aF0
aF0
aNaF0.33333333333333331
aF1
aF0
aF-2.6666666666666665
aF-2.6666666666666665
aF-1
aF-2.6666666666666665
aF0
aF0
aNaF-3
aF-0.33333333333333331
aF-1
aF0.33333333333333331
aF0.33333333333333331
aF0.33333333333333331
aF0
aF0
aF0
aNaF1.3333333333333333
aF0
aF0.33333333333333331
aF0
aF-3
aF199.99999999999997
aF0
aF76.000000000000014
aF57
aF5
aF0
aI407
aF32.567376549038251
aS'A'
aS'H'
ag5
(S'\x07\xdc\x01\x04'
tRp137
aS'Everton'
p138
aS'Bolton'
p139
aa(lp140
F-0.33333333333333331
aF-0.33333333333333331
aF0
aF-1.3333333333333333
aF0
aF0
aNaF-1.3333333333333333
aF0
aF0
aF2.6666666666666665
aF2.6666666666666665
aF1
aF2.6666666666666665
aF0
aF0
aNaF3
aF0
aF0
aF-0.33333333333333331
aF-0.33333333333333331
aF-0.33333333333333331
aF0
aF0
aF0
aNaF-0.33333333333333331
aF0
aF0
aF13.333333333333332
aF1.6666666666666667
aF-243
aF-17
aF35
aF-128.33333333333337
aF-11
aF0.33333333333333331
aI-88
aF32.567376549038251
aS'A'
aS'A'
ag5
(S'\x07\xdb\x0b\x1a'
tRp141
aS'Bolton'
p142
aS'Everton'
p143
aa(lp144
F0
aF1.3333333333333333
aF1
aF1.3333333333333333
aNaF2.6666666666666665
aF0
aF1.3333333333333333
aF-1
aF3
aF0
aF-2.6666666666666665
aF-1.3333333333333333
aF-1.3333333333333333
aNaF0
aF0
aF-3
aF1.3333333333333333
aF-1.3333333333333333
aF0
aF0
aF0.33333333333333331
aF0
aNaF-1.3333333333333333
aF0
aF0.33333333333333331
aF-0.33333333333333331
aF-0.33333333333333331
aF0
aF-1.6666666666666667
aF-135.00000000000006
aF-15.666666666666657
aF-74.666666666666657
aF-189.00000000000006
aF-9.3333333333333321
aF0.33333333333333331
aI2000
aF20.773967847011392
aS'H'
aS'H'
ag5
(S'\x07\xdb\x03\x13'
tRp145
aS'Man United'
p146
aS'Bolton'
p147
aa(lp148
F-0.33333333333333331
aF-0.33333333333333331
aF0
aF-3
aF-0.33333333333333331
aF-1
aNaF-0.33333333333333331
aF0
aF0.33333333333333331
aF3
aF2.6666666666666665
aF1
aF1.3333333333333333
aF1
aF0
aNaF3
aF1
aF-1
aF-1.3333333333333333
aF-0.33333333333333331
aF-0.33333333333333331
aF0.33333333333333331
aF0
aF1
aNaF-1.3333333333333333
aF-0.33333333333333331
aF0
aF-20
aF-1.3333333333333333
aF-140
aF-105.00000000000001
aF-141
aF85.333333333333314
aF-6.666666666666667
aF0
aI189
aF32.567376549038251
aS'H'
aS'A'
ag5
(S'\x07\xdb\x02\r'
tRp149
aS'Bolton'
p150
aS'Everton'
p151
aa(lp152
F0.5
aF0.33333333333333331
aF-0.33333333333333331
aF2
aF0.33333333333333331
aF1.6666666666666667
aNaF0.5
aF0
aF1.3333333333333333
aF-2
aF-1.6666666666666667
aF0
aF-0.5
aF-1
aF0
aNaF-2
aF-0.33333333333333331
aF0.33333333333333331
aF0.5
aF0
aF1
aF-0.5
aF0
aF-1.3333333333333333
aNaF0.5
aF1
aF-3
aF-3.0000000000000009
aF1
aF114.66666666666663
aF109.66666666666666
aF75
aF0
aF-5.3333333333333339
aF0
aI-29
aF32.567376549038251
aS'D'
aS'H'
ag5
(S'\x07\xda\x0b\n'
tRp153
aS'Everton'
p154
aS'Bolton'
p155
aa(lp156
F0
aF-0.5
aF-1
aF-1
aNaF-1.5
aF0
aF0
aF-2.6666666666666665
aF1
aF0
aF1.5
aF0
aF0.5
aNaF0
aF0
aF2
aF1.3333333333333333
aF-0.33333333333333331
aF0
aF0
aF1
aF0.5
aNaF0.5
aF0
aF-1
aF0
aF0
aF-6.666666666666667
aF0
aF-974.33333333333326
aF-252
aF-28.999999999999993
aF528
aF0
aF1.3333333333333333
aI-3737
aF20.773967847011392
aS'A'
aS'A'
ag5
(S'\x07\xda\x03\x1b'
tRp157
aS'Bolton'
p158
aS'Man United'
p159
aa(lp160
F0.5
aF0
aF0
aF1
aF0.5
aF1.5
aNaF0.5
aF-1
aF2.6666666666666665
aF-1
aF0
aF0.5
aF-0.5
aF-0.5
aF0
aNaF-2
aF0
aF-1.3333333333333333
aF0.5
aF0
aF-0.5
aF-0.5
aF0
aF-0.5
aNaF0.5
aF0.33333333333333331
aF0
aF9.3333333333333321
aF2.333333333333333
aF375
aF245.33333333333331
aF39.999999999999993
aF-306.66666666666663
aF-12.999999999999998
aF-1.3333333333333333
aI740
aF32.567376549038251
aS'H'
aS'H'
ag5
(S'\x07\xda\x03\x14'
tRp161
aS'Everton'
p162
aS'Bolton'
p163
aa(lp164
F0
aF0
aF0
aF0
aF0
aF-1
aNaF0
aF0
aF-0.5
aF0
aF1
aF0
aF0
aF1
aF0
aNaF1
aF0.33333333333333331
aF-0.5
aF0
aF0
aF1
aF0
aF0
aF0
aNaF0
aF-1
aF2
aF5.3333333333333339
aF1
aF-344.00000000000006
aF-166.66666666666666
aF-143
aF272.00000000000006
aF-3.0000000000000009
aF0
aI-57
aF32.567376549038251
aS'H'
aS'A'
ag5
(S'\x07\xd9\n\x19'
tRp165
aS'Bolton'
p166
aS'Everton'
p167
aa(lp168
F0
aF0
aF1
aF1
aNaF1
aF0
aF0
aF1
aF-1.5
aF0
aF-1
aF0
aF0
aNaF0
aF0
aF-1
aF0
aF0
aF0
aF0
aF-1
aF0
aNaF0
aF0
aF1
aF-1
aF0.5
aF12.999999999999998
aF-1
aF504
aF135
aF285
aF-96
aF0
aF0
aI297
aF20.773967847011392
aS'H'
aS'H'
ag5
(S'\x07\xd9\n\x11'
tRp169
aS'Man United'
p170
aS'Bolton'
p171
aasS'Blackburn'
p172
(lp173
(lp174
F-1.3333333333333333
aF0
aF-1.3333333333333333
aF-0.33333333333333331
aNaF-2.6666666666666665
aF-1.3333333333333333
aF-1
aF-1.6666666666666667
aF-1.6666666666666667
aF3
aF0
aF3
aF2.6666666666666665
aNaF0.33333333333333331
aF1.3333333333333333
aF1.3333333333333333
aF0.33333333333333331
aF0
aF-0.33333333333333331
aF0
aF-0.33333333333333331
aF-0.33333333333333331
aNaF0.33333333333333331
aF0
aF-0.33333333333333331
aF0
aF0.33333333333333331
aF-12.999999999999998
aF-8
aF-759
aF-469.33333333333337
aF-86.333333333333343
aF-137.66666666666666
aF4
aF0
aI-4545
aF32.262740424616027
aS'A'
aS'A'
ag5
(S'\x07\xdc\x04\x02'
tRp175
ag172
aS'Man United'
p176
aa(lp177
F0.33333333333333331
aF0
aF0.33333333333333331
aF1.3333333333333333
aF-0.33333333333333331
aF0
aNaF0.33333333333333331
aF-1.3333333333333333
aF0
aF-2.6666666666666665
aF0
aF-2.6666666666666665
aF-1
aF1
aF-0.33333333333333331
aNaF-1.3333333333333333
aF1
aF0
aF0.33333333333333331
aF0
aF0.33333333333333331
aF-0.33333333333333331
aF0
aF1
aNaF1
aF0.33333333333333331
aF0
aF-14.999999999999998
aF-1.3333333333333333
aF-245.66666666666669
aF-128.33333333333334
aF7.6666666666666643
aF21.666666666666686
aF0
aF-0.33333333333333331
aI336
aF45.045617758342772
aS'D'
aS'H'
ag5
(S'\x07\xdc\x01\x15'
tRp178
aS'Everton'
p179
aS'Blackburn'
p180
aa(lp181
F1.3333333333333333
aF0
aF1.3333333333333333
aF0.33333333333333331
aNaF2.6666666666666665
aF1
aF1.3333333333333333
aF3
aF1.3333333333333333
aF-2.6666666666666665
aF0
aF-3
aF-1
aNaF-0.33333333333333331
aF-1.3333333333333333
aF-1.3333333333333333
aF-1.3333333333333333
aF-1.3333333333333333
aF0
aF0
aF0.33333333333333331
aF0
aNaF-0.33333333333333331
aF0.33333333333333331
aF0
aF-0.33333333333333331
aF0
aF45
aF11.666666666666666
aF326.33333333333337
aF186.66666666666666
aF266.66666666666669
aF-98.333333333333314
aF0
aF0
aI1904
aF32.262740424616027
aS'A'
aS'H'
ag5
(S'\x07\xdb\x0c\x1f'
tRp182
aS'Man United'
p183
aS'Blackburn'
p184
aa(lp185
F-0.33333333333333331
aF-1
aF-1.3333333333333333
aF-1.3333333333333333
aNaF-1.6666666666666667
aF0
aF-1.3333333333333333
aF-1
aF0
aF0
aF1
aF3
aF1.3333333333333333
aNaF0.33333333333333331
aF1
aF0.33333333333333331
aF0
aF0
aF0.33333333333333331
aF0
aF-0.33333333333333331
aF0
aNaF0
aF-0.33333333333333331
aF1
aF0.33333333333333331
aF0
aF-1.6666666666666667
aF0
aF-218.66666666666669
aF-135
aF-192
aF151.66666666666669
aF-6.666666666666667
aF0
aI-4255
aF32.262740424616027
aS'D'
aS'A'
ag5
(S'\x07\xdb\x05\x0e'
tRp186
aS'Blackburn'
p187
aS'Man United'
p188
aa(lp189
F0.33333333333333331
aF0
aF0.33333333333333331
aF3
aF0.33333333333333331
aF0
aNaF1.3333333333333333
aF1.3333333333333333
aF0.33333333333333331
aF-1.3333333333333333
aF-1
aF-2.6666666666666665
aF-1.3333333333333333
aF-1
aF-0.33333333333333331
aNaF-0.33333333333333331
aF0
aF-1.3333333333333333
aF1
aF0.33333333333333331
aF0.33333333333333331
aF-0.33333333333333331
aF0
aF0.33333333333333331
aNaF-1
aF-2.6666666666666665
aF1
aF13.333333333333332
aF8
aF-198.33333333333337
aF143
aF-25.333333333333343
aF202.66666666666669
aF3.6666666666666661
aF-0.33333333333333331
aI711
aF45.045617758342772
aS'H'
aS'H'
ag5
(S'\x07\xdb\x04\x10'
tRp190
aS'Everton'
p191
aS'Blackburn'
p192
aa(lp193
F0
aF1.3333333333333333
aF3
aF1.3333333333333333
aNaF1.6666666666666667
aF0
aF0.33333333333333331
aF-1
aF2.6666666666666665
aF0.66666666666666674
aF-1
aF-3
aF-1.3333333333333333
aNaF0
aF-1
aF-0.33333333333333331
aF-0.33333333333333331
aF-1.3333333333333333
aF-0.33333333333333331
aF-0.33333333333333331
aF0
aF0
aNaF-0.33333333333333331
aF0.33333333333333331
aF0
aF1.3333333333333333
aF0
aF-6.666666666666667
aF-1
aF170.33333333333337
aF117.33333333333334
aF128.33333333333334
aF-240.00000000000006
aF0
aF0
aI460
aF32.262740424616027
aS'H'
aS'H'
ag5
(S'\x07\xda\x0b\x1b'
tRp194
aS'Man United'
p195
aS'Blackburn'
p196
aa(lp197
F-0.5
aF0
aF0
aF-2
aF-0.5
aF-1.5
aNaF-0.5
aF0.33333333333333331
aF0
aF0.5
aF-1.5
aF1.5
aF2
aF0
aF0
aNaF0.5
aF0
aF0
aF0
aF0.5
aF-0.5
aF0
aF0.5
aF0.5
aNaF0
aF-1.6666666666666667
aF0
aF-5
aF-1
aF-243
aF-127.99999999999997
aF-27
aF170.66666666666669
aF-3.0000000000000009
aF0
aI-752
aF45.045617758342772
aS'A'
aS'A'
ag5
(S'\x07\xda\x04\x11'
tRp198
aS'Blackburn'
p199
aS'Everton'
p200
aa(lp201
F0
aF-0.5
aF-1
aF-1
aNaF-1.5
aF-0.5
aF0
aF0
aF0
aF-1.5
aF0
aF2
aF2
aNaF0
aF0.5
aF0.5
aF-0.33333333333333331
aF-0.33333333333333331
aF0.5
aF0.5
aF0
aF0
aNaF0.5
aF0
aF-0.5
aF0.33333333333333331
aF0.33333333333333331
aF-13.333333333333332
aF0
aF115
aF48.000000000000014
aF51.999999999999993
aF26.333333333333371
aF0
aF0
aI-3420
aF32.262740424616027
aS'D'
aS'A'
ag5
(S'\x07\xda\x04\x0b'
tRp202
aS'Blackburn'
p203
aS'Man United'
p204
aa(lp205
F0
aF0
aF1
aF1
aNaF1
aF0
aF0
aF0
aF1.3333333333333333
aF-1
aF1
aF0
aF-1
aNaF0
aF-1
aF-1
aF-1
aF-3
aF0
aF0
aF0
aF0
aNaF0
aF0
aF1
aF0.33333333333333331
aF0.33333333333333331
aF-3.0000000000000009
aF-7.0000000000000009
aF264.33333333333331
aF72
aF255.99999999999997
aF-25
aF0
aF0.33333333333333331
aI384
aF32.262740424616027
aS'H'
aS'H'
ag5
(S'\x07\xd9\n\x1f'
tRp206
aS'Man United'
p207
aS'Blackburn'
p208
aasS'Burnley'
p209
(lp210
(lp211
F0
aF0
aF1
aF1
aNaF2
aF0.5
aF-1
aF1.3333333333333333
aF1.3333333333333333
aF0
aF0
aF-1
aF0
aNaF-1
aF-0.5
aF0
aF-1.3333333333333333
aF-2.6666666666666665
aF0
aF0
aF0
aF-1
aNaF0
aF0
aF1
aF0
aF0
aF26.666666666666668
aF5.333333333333333
aF589
aF295
aF88.000000000000014
aF-49.333333333333314
aF-9
aF0
aI1536
aF36.46714481489316
aS'H'
aS'H'
ag5
(S'\x07\xda\x01\x10'
tRp212
aS'Man United'
p213
ag209
aa(lp214
F0
aF0
aF0
aF0
aF-1
aF1
aNaF-1
aF0
aF0
aF-1
aF0
aF-1
aF0
aF1
aF-1
aNaF0
aF-0.33333333333333331
aF-2.6666666666666665
aF1
aF0
aF1
aF-1
aF0
aF0
aNaF1
aF1.6666666666666667
aF1.3333333333333333
aF7.0000000000000009
aF2.6666666666666665
aF197.33333333333337
aF22.666666666666671
aF35
aF240.00000000000006
aF2.333333333333333
aF0
aI-39
aF62.260938877746113
aS'H'
aS'H'
ag5
(S'\x07\xd9\x0c\x1c'
tRp215
aS'Everton'
p216
aS'Burnley'
p217
aasS'Blackpool'
p218
(lp219
(lp220
F0.33333333333333331
aF-0.66666666666666674
aF0.83333333333333326
aF1.3333333333333333
aNaF2.5
aF0.33333333333333331
aF0.83333333333333326
aF0
aF3
aF-0.66666666666666674
aF0.33333333333333331
aF0
aF-2
aNaF-0.5
aF-0.16666666666666669
aF-0.5
aF0.33333333333333331
aF-0.33333333333333331
aF0
aF0
aF-0.16666666666666669
aF0.33333333333333331
aNaF0
aF-0.16666666666666669
aF0.33333333333333331
aF-1
aF-1.3333333333333333
aF-5.3333333333333339
aF-1.6666666666666667
aF-69
aF-26.666666666666671
aF45.333333333333329
aF-207
aF3.0000000000000009
aF0
aI4408
aF62.705499461458714
aS'H'
aS'H'
ag5
(S'\x07\xdb\x05\x16'
tRp221
aS'Man United'
p222
ag218
aa(lp223
F0.33333333333333331
aF-1.6666666666666667
aF0.33333333333333331
aF3
aF0.33333333333333331
aF0.33333333333333326
aNaF-0.16666666666666669
aF0
aF0
aF-1
aF0.33333333333333331
aF0.33333333333333331
aF-2
aF-0.66666666666666674
aF0
aNaF-0.5
aF-2.6666666666666665
aF-1.3333333333333333
aF1.3333333333333333
aF0.33333333333333331
aF0.33333333333333331
aF0
aF0.33333333333333331
aF0.33333333333333331
aNaF1.3333333333333333
aF1.3333333333333333
aF1.3333333333333333
aF3.0000000000000009
aF-2.6666666666666665
aF-132.99999999999997
aF-45.333333333333329
aF-17
aF165.66666666666669
aF9
aF0
aI-55
aF41.055532975309589
aS'H'
aS'H'
ag5
(S'\x07\xdb\x02\x05'
tRp224
aS'Everton'
p225
aS'Blackpool'
p226
aa(lp227
F0
aF0.66666666666666674
aF-1.3333333333333333
aF-1.3333333333333333
aNaF-2
aF-0.33333333333333331
aF-0.83333333333333326
aF-1
aF0
aF-1
aF-0.33333333333333331
aF0
aF2
aNaF0
aF-0.33333333333333331
aF0.5
aF1.3333333333333333
aF1.3333333333333333
aF0
aF0
aF-0.33333333333333331
aF-0.33333333333333331
aNaF0
aF0.66666666666666674
aF-0.33333333333333331
aF-0.33333333333333331
aF-1.3333333333333333
aF-7.9999999999999982
aF-4
aF-359.66666666666669
aF-25.333333333333343
aF-11.666666666666671
aF-85.333333333333314
aF3.0000000000000009
aF-0.33333333333333331
aI-1520
aF62.705499461458714
aS'A'
aS'A'
ag5
(S'\x07\xdb\x01\x19'
tRp228
aS'Blackpool'
p229
aS'Man United'
p230
aa(lp231
F-0.5
aF0.66666666666666674
aF0
aF-2
aF-0.33333333333333331
aF-1
aNaF-0.5
aF-1
aF0
aF1
aF-1.3333333333333333
aF-0.33333333333333331
aF1
aF-0.33333333333333331
aF0
aNaF0
aF1.3333333333333333
aF1.3333333333333333
aF-0.5
aF0
aF-1.3333333333333333
aF0
aF-0.33333333333333331
aF0
aNaF-0.5
aF-0.33333333333333331
aF-1.3333333333333333
aF0
aF-1
aF481.66666666666669
aF0
aF39
aF27
aF-2.333333333333333
aF0
aI0
aF41.055532975309589
aS'D'
aS'A'
ag5
(S'\x07\xda\x0b\x06'
tRp232
aS'Blackpool'
p233
aS'Everton'
p234
aasS'Fulham'
p235
(lp236
(lp237
F-1.3333333333333333
aF-1.6666666666666667
aF-0.33333333333333331
aF-0.33333333333333331
aNaF0
aF-0.33333333333333331
aF-2.6666666666666665
aF-1
aF0
aF0
aF0.33333333333333331
aF2.6666666666666665
aF1.6666666666666667
aNaF-0.33333333333333331
aF1
aF0.33333333333333331
aF0.33333333333333331
aF0.33333333333333331
aF2.6666666666666665
aF0
aF-0.33333333333333331
aF0
aNaF0.33333333333333331
aF0
aF0.33333333333333331
aF0
aF-1
aF-3.0000000000000009
aF-4
aF-41.333333333333314
aF-106.66666666666666
aF-7
aF-320
aF-11
aF0
aI-2697
aF261.76785936155176
aS'A'
aS'A'
ag5
(S'\x07\xdd\x02\x02'
tRp238
ag235
aS'Man United'
p239
aa(lp240
F-1.3333333333333333
aF1.3333333333333333
aF-1.3333333333333333
aF-1.3333333333333333
aF-0.33333333333333331
aF2.6666666666666665
aNaF0
aF0.33333333333333331
aF1
aF-0.33333333333333331
aF-1
aF2.6666666666666665
aF1
aF2.6666666666666665
aF0
aNaF0
aF0
aF0.33333333333333331
aF3
aF-0.33333333333333331
aF0
aF0.33333333333333331
aF-0.33333333333333331
aF-1.3333333333333333
aNaF0
aF-1.6666666666666667
aF-1.3333333333333333
aF3.6666666666666661
aF-5.333333333333333
aF120
aF-29.333333333333343
aF41.000000000000014
aF-487.66666666666669
aF-32
aF-0.33333333333333331
aI-60
aF286.81183210199458
aS'D'
aS'A'
ag5
(S'\x07\xdc\x0b\x03'
tRp241
aS'Fulham'
p242
aS'Everton'
p243
aa(lp244
F1.3333333333333333
aF-0.33333333333333331
aF1.3333333333333333
aF1.3333333333333333
aF0
aF-1
aNaF1
aF-1
aF1
aF0.33333333333333331
aF0
aF-2.6666666666666665
aF0
aF-1.6666666666666667
aF0
aNaF0
aF0
aF-1
aF-3
aF0.33333333333333331
aF0
aF-1.3333333333333333
aF0.33333333333333331
aF1
aNaF-1
aF1
aF0
aF21.333333333333336
aF0
aF311.66666666666669
aF17.666666666666657
aF-24.999999999999993
aF199.99999999999997
aF7.0000000000000009
aF0
aI188
aF286.81183210199458
aS'H'
aS'H'
ag5
(S'\x07\xdc\x04\x1c'
tRp245
aS'Everton'
p246
aS'Fulham'
p247
aa(lp248
F1.3333333333333333
aF0
aF1.3333333333333333
aF0.33333333333333331
aNaF1.6666666666666667
aF1.3333333333333333
aF1
aF2.6666666666666665
aF2.6666666666666665
aF-0.33333333333333331
aF-1
aF-3
aF0
aNaF0
aF-1.3333333333333333
aF0
aF-1.3333333333333333
aF-1.3333333333333333
aF-1
aF0.33333333333333331
aF0.33333333333333331
aF-1
aNaF-0.33333333333333331
aF0
aF-1
aF0
aF0
aF25
aF7.0000000000000009
aF122.66666666666663
aF98.333333333333314
aF11.666666666666671
aF0
aF2.6666666666666665
aF0
aI3604
aF261.76785936155176
aS'H'
aS'H'
ag5
(S'\x07\xdc\x03\x1a'
tRp249
aS'Man United'
p250
aS'Fulham'
p251
aa(lp252
F-1.3333333333333333
aF0
aF-1.3333333333333333
aF-0.33333333333333331
aNaF-1.6666666666666667
aF-1.3333333333333333
aF-1
aF-1.6666666666666667
aF-1.6666666666666667
aF1
aF1
aF3
aF0
aNaF0
aF1.3333333333333333
aF0
aF0.33333333333333331
aF0.33333333333333331
aF0.33333333333333331
aF-0.33333333333333331
aF-0.33333333333333331
aF1
aNaF0.33333333333333331
aF0
aF1
aF0
aF0
aF-13.333333333333332
aF-4
aF-165
aF-128
aF-101.33333333333334
aF0
aF5.3333333333333339
aF0
aI-1197
aF261.76785936155176
aS'A'
aS'A'
ag5
(S'\x07\xdb\x0c\x15'
tRp253
aS'Fulham'
p254
aS'Man United'
p255
aa(lp256
F-0.33333333333333331
aF-0.33333333333333331
aF-0.33333333333333331
aF-1.3333333333333333
aF-0.33333333333333331
aF1
aNaF-1
aF0.33333333333333331
aF0.33333333333333331
aF1
aF1
aF2.6666666666666665
aF0
aF1
aF0
aNaF0
aF-2.6666666666666665
aF-3
aF0
aF0
aF-0.33333333333333331
aF1.3333333333333333
aF0
aF-1
aNaF1
aF0.33333333333333331
aF1.3333333333333333
aF11.666666666666666
aF3
aF299.00000000000006
aF128.33333333333334
aF-31.666666666666668
aF0
aF5.6666666666666679
aF-0.33333333333333331
aI0
aF286.81183210199458
aS'A'
aS'H'
ag5
(S'\x07\xdb\n\x17'
tRp257
aS'Fulham'
p258
aS'Everton'
p259
aa(lp260
F0
aF1
aF1.3333333333333333
aF1.3333333333333333
aNaF1.6666666666666667
aF0.33333333333333331
aF1
aF0
aF3
aF1.6666666666666667
aF0
aF-3
aF-1.3333333333333333
aNaF0
aF-1
aF0
aF0
aF-0.33333333333333331
aF-0.33333333333333331
aF-0.33333333333333331
aF0.33333333333333331
aF0
aNaF-0.33333333333333331
aF0
aF-1
aF0
aF-1.3333333333333333
aF-4.3333333333333321
aF-3
aF112
aF-69.333333333333314
aF233.33333333333331
aF-394.66666666666669
aF3.0000000000000009
aF0.33333333333333331
aI2912
aF261.76785936155176
aS'H'
aS'H'
ag5
(S'\x07\xdb\x04\t'
tRp261
aS'Man United'
p262
aS'Fulham'
p263
aa(lp264
F0.33333333333333331
aF0
aF0.33333333333333331
aF3
aF0
aF0
aNaF1
aF1
aF1.3333333333333333
aF-1.3333333333333333
aF0
aF-2.6666666666666665
aF-1.3333333333333333
aF0
aF0
aNaF0
aF0
aF-0.33333333333333331
aF1
aF0
aF0.33333333333333331
aF-0.33333333333333331
aF0
aF0
aNaF-1
aF-1
aF-1
aF3.0000000000000009
aF8
aF255.00000000000006
aF69.333333333333314
aF31
aF-45.333333333333314
aF-3.6666666666666661
aF0
aI144
aF286.81183210199458
aS'H'
aS'H'
ag5
(S'\x07\xdb\x03\x13'
tRp265
aS'Everton'
p266
aS'Fulham'
p267
aa(lp268
F0.5
aF-0.5
aF0
aF2
aF0
aF1.5
aNaF0
aF0
aF1.3333333333333333
aF-2
aF2
aF0
aF-0.5
aF0
aF0
aNaF0
aF0
aF-1.3333333333333333
aF0.5
aF-0.5
aF0
aF-0.5
aF0
aF-0.5
aNaF0
aF0
aF0
aF14.999999999999998
aF3
aF251.99999999999997
aF80
aF-14.666666666666664
aF-206.66666666666666
aF3.6666666666666661
aF0
aI1067
aF286.81183210199458
aS'H'
aS'H'
ag5
(S'\x07\xda\x04\x19'
tRp269
aS'Everton'
p270
aS'Fulham'
p271
aa(lp272
F0
aF-1
aF1
aF1
aNaF2
aF-0.5
aF-0.5
aF0
aF3
aF-1
aF1
aF-0.5
aF0
aNaF0
aF0.5
aF0
aF0.33333333333333331
aF-0.33333333333333331
aF0
aF0
aF-0.5
aF-1
aNaF-1
aF0
aF0.5
aF-0.33333333333333331
aF-1.3333333333333333
aF0
aF0
aF181.33333333333331
aF13.000000000000014
aF121
aF-124
aF-7.0000000000000009
aF0
aI2525
aF261.76785936155176
aS'H'
aS'H'
ag5
(S'\x07\xda\x03\x0e'
tRp273
aS'Man United'
p274
aS'Fulham'
p275
aa(lp276
F0
aF1
aF-1
aF-1
aNaF-1
aF0
aF1
aF-1
aF0
aF0
aF-1
aF0
aF0
aNaF0
aF0
aF0
aF-0.33333333333333331
aF-0.33333333333333331
aF0
aF0
aF0
aF1
aNaF1
aF0
aF-1
aF1.3333333333333333
aF0.33333333333333331
aF-13.333333333333332
aF-2.6666666666666665
aF-172
aF-172.33333333333331
aF-123.00000000000001
aF-128.33333333333331
aF2.333333333333333
aF0
aI-840
aF261.76785936155176
aS'H'
aS'A'
ag5
(S'\x07\xd9\x0c\x13'
tRp277
aS'Fulham'
p278
aS'Man United'
p279
aasS'Newcastle'
p280
(lp281
(lp282
F0
aF0.33333333333333331
aF-1
aF-0.33333333333333331
aF0
aF1
aNaF-1
aF-1
aF1
aF0
aF-1
aF0
aF2.6666666666666665
aF1
aF0.33333333333333331
aNaF0
aF1
aF0.33333333333333331
aF0
aF0
aF0.33333333333333331
aF-0.33333333333333331
aF-0.33333333333333331
aF-1.3333333333333333
aNaF1
aF0
aF-1.3333333333333333
aF7.9999999999999982
aF2.6666666666666665
aF0
aF66.666666666666657
aF-68.333333333333343
aF67
aF13.333333333333332
aF-0.33333333333333331
aI-689
aF191.98668084042177
aS'A'
aS'A'
ag5
(S'\x07\xdd\x01\x02'
tRp283
ag280
aS'Everton'
p284
aa(lp285
F1
aF1
aF1
aF0.33333333333333331
aNaF0
aF0
aF2.6666666666666665
aF1
aF3
aF-1.3333333333333333
aF-0.33333333333333331
aF0
aF-1.6666666666666667
aNaF0
aF0
aF0
aF-1.3333333333333333
aF-3
aF0.33333333333333331
aF0
aF-0.33333333333333331
aF0
aNaF0
aF0
aF-1.3333333333333333
aF0.33333333333333331
aF0
aF13.333333333333332
aF8.3333333333333339
aF-420.33333333333337
aF-71.999999999999972
aF-129
aF201
aF4.3333333333333321
aF0
aI1449
aF173.76634150389097
aS'H'
aS'H'
ag5
(S'\x07\xdc\x0c\x1a'
tRp286
aS'Man United'
p287
aS'Newcastle'
p288
aa(lp289
F-1
aF-1
aF-1
aF-0.33333333333333331
aNaF0
aF0
aF-2.6666666666666665
aF-1
aF0
aF1.3333333333333333
aF1.3333333333333333
aF0
aF1.6666666666666667
aNaF0
aF0
aF0
aF-0.33333333333333331
aF0
aF-0.33333333333333331
aF-0.33333333333333331
aF0.33333333333333331
aF0
aNaF0
aF0
aF1.3333333333333333
aF1.3333333333333333
aF0
aF-12.999999999999998
aF0.33333333333333331
aF-125.00000000000006
aF-53.333333333333343
aF-62.999999999999993
aF158.99999999999997
aF11
aF0
aI-63
aF173.76634150389097
aS'A'
aS'A'
ag5
(S'\x07\xdc\n\x07'
tRp290
aS'Newcastle'
p291
aS'Man United'
p292
aa(lp293
F1
aF-0.33333333333333331
aF1.3333333333333333
aF1.3333333333333333
aF-0.33333333333333331
aF-1
aNaF1
aF0
aF1.6666666666666667
aF0
aF0
aF0
aF-2.6666666666666665
aF1.3333333333333333
aF-0.33333333333333331
aNaF0
aF-1.3333333333333333
aF-0.33333333333333331
aF-0.33333333333333331
aF0.33333333333333331
aF-1.3333333333333333
aF0
aF-1
aF1.3333333333333333
aNaF-1
aF1.3333333333333333
aF0
aF7.0000000000000009
aF5
aF77.000000000000057
aF39
aF69
aF176
aF-20
aF0
aI-1416
aF191.98668084042177
aS'H'
aS'H'
ag5
(S'\x07\xdc\x05\r'
tRp294
aS'Everton'
p295
aS'Newcastle'
p296
aa(lp297
F-1.3333333333333333
aF0
aF-1.3333333333333333
aF-0.33333333333333331
aNaF-1.6666666666666667
aF0
aF0
aF-1
aF-3
aF0
aF1
aF0.33333333333333331
aF2.6666666666666665
aNaF0
aF0.33333333333333331
aF0
aF1
aF1.3333333333333333
aF1.3333333333333333
aF-0.33333333333333331
aF1
aF-0.33333333333333331
aNaF0.33333333333333331
aF-0.33333333333333331
aF0
aF0
aF0.33333333333333331
aF-39.666666666666664
aF-7.0000000000000009
aF-601.66666666666674
aF-251.99999999999997
aF-391
aF59
aF0
aF0
aI-1125
aF173.76634150389097
aS'H'
aS'A'
ag5
(S'\x07\xdc\x01\x04'
tRp298
aS'Newcastle'
p299
aS'Man United'
p300
aa(lp301
F1.3333333333333333
aF-0.16666666666666669
aF1.3333333333333333
aF0.33333333333333331
aNaF1.6666666666666667
aF0
aF0
aF1.6666666666666667
aF0
aF0.33333333333333331
aF-0.16666666666666669
aF-0.33333333333333331
aF-2.6666666666666665
aNaF0
aF-0.33333333333333331
aF0
aF-0.33333333333333331
aF0
aF-2
aF0.33333333333333331
aF-1
aF0.33333333333333331
aNaF-0.33333333333333331
aF0.33333333333333331
aF0
aF0
aF0
aF-9
aF-2.333333333333333
aF182.99999999999997
aF86.333333333333343
aF-21
aF-186.66666666666666
aF-2.6666666666666665
aF0
aI216
aF173.76634150389097
aS'D'
aS'H'
ag5
(S'\x07\xdb\x0b\x1a'
tRp302
aS'Man United'
p303
aS'Newcastle'
p304
aa(lp305
F-0.33333333333333331
aF0.16666666666666669
aF-0.33333333333333331
aF-1.3333333333333333
aF0
aF1
aNaF0
aF1
aF1
aF-0.33333333333333331
aF0.16666666666666669
aF0
aF1.6666666666666667
aF-0.83333333333333326
aF0
aNaF0
aF-1.3333333333333333
aF-1.3333333333333333
aF1.6666666666666667
aF-0.33333333333333331
aF1
aF0
aF0.16666666666666669
aF-1
aNaF0
aF0.33333333333333331
aF0.33333333333333331
aF6.666666666666667
aF1
aF-161
aF-56.000000000000014
aF49
aF21
aF-3.6666666666666661
aF0
aI384
aF191.98668084042177
aS'H'
aS'H'
ag5
(S'\x07\xdb\x0b\x05'
tRp306
aS'Newcastle'
p307
aS'Everton'
p308
aa(lp309
F0
aF-0.33333333333333326
aF-1.3333333333333333
aF-1.3333333333333333
aNaF-2.5
aF0.16666666666666669
aF-0.83333333333333326
aF-2.6666666666666665
aF0
aF-3
aF-0.33333333333333331
aF0.5
aF2
aNaF0
aF0.16666666666666669
aF0
aF1.3333333333333333
aF-1
aF1
aF0
aF0.16666666666666669
aF-0.33333333333333331
aNaF0.5
aF-0.33333333333333331
aF0.16666666666666669
aF0
aF0.33333333333333331
aF-11
aF0
aF-311.66666666666669
aF-54.999999999999972
aF-366.66666666666669
aF201
aF20
aF-0.33333333333333331
aI-3240
aF173.76634150389097
aS'D'
aS'A'
ag5
(S'\x07\xdb\x04\x13'
tRp310
aS'Newcastle'
p311
aS'Man United'
p312
aa(lp313
F-0.33333333333333331
aF0.66666666666666674
aF-0.33333333333333331
aF-3
aF-0.33333333333333331
aF-0.83333333333333326
aNaF-0.83333333333333326
aF-1
aF0
aF0
aF-0.33333333333333331
aF0.16666666666666669
aF2
aF0.66666666666666674
aF0
aNaF0
aF-0.33333333333333331
aF-1.3333333333333333
aF-0.33333333333333326
aF-0.33333333333333331
aF0.16666666666666669
aF0
aF-0.33333333333333331
aF0.16666666666666669
aNaF0.16666666666666669
aF1.3333333333333333
aF2.6666666666666665
aF-13.333333333333332
aF-1.6666666666666667
aF-392.00000000000006
aF-160
aF37.000000000000014
aF21
aF12
aF0.33333333333333331
aI207
aF191.98668084042177
aS'A'
aS'H'
ag5
(S'\x07\xdb\x03\x05'
tRp314
aS'Newcastle'
p315
aS'Everton'
p316
aasS'QPR'
p317
(lp318
(lp319
F0
aF-0.33333333333333331
aF1
aF1.3333333333333333
aF0.33333333333333331
aF0
aNaF1
aF1.3333333333333333
aF2.6666666666666665
aF1
aF0
aF-0.33333333333333331
aF-1.3333333333333333
aF-2.6666666666666665
aF0
aNaF-0.33333333333333331
aF-1.3333333333333333
aF-1.3333333333333333
aF-0.33333333333333331
aF0.33333333333333331
aF0
aF0
aF0.33333333333333331
aF0
aNaF0
aF0
aF0
aF0
aF1.6666666666666667
aF-208.00000000000006
aF-71.666666666666671
aF111.00000000000001
aF206.66666666666666
aF3.6666666666666661
aF0
aI2128
aF283.38430258525636
aS'H'
aS'H'
ag5
(S'\x07\xdd\x04\r'
tRp320
aS'Everton'
p321
ag317
aa(lp322
F-1
aF-2.6666666666666665
aF0
aF-0.33333333333333331
aNaF-1
aF0
aF-3
aF-3
aF-1.3333333333333333
aF0.33333333333333331
aF1.3333333333333333
aF0
aF0
aNaF0
aF-0.33333333333333331
aF1.3333333333333333
aF0.33333333333333331
aF0
aF0
aF0
aF0
aF0.33333333333333331
aNaF0.33333333333333331
aF1
aF0.33333333333333331
aF1.3333333333333333
aF2.6666666666666665
aF-8
aF-5.333333333333333
aF0
aF-39
aF-55
aF-264.33333333333331
aF13.333333333333332
aF0
aI-3936
aF258.11610071692422
aS'A'
aS'A'
ag5
(S'\x07\xdd\x02\x17'
tRp323
aS'QPR'
p324
aS'Man United'
p325
aa(lp326
F1
aF0.83333333333333326
aF1
aF0.33333333333333331
aNaF0.83333333333333326
aF0
aF3
aF1.3333333333333333
aF1.3333333333333333
aF-0.33333333333333331
aF-0.5
aF-1
aF-1.6666666666666667
aNaF-0.16666666666666669
aF0.33333333333333331
aF-2
aF-1
aF-2.6666666666666665
aF0
aF0.33333333333333331
aF0
aF0
aNaF0
aF-1
aF0
aF-0.33333333333333331
aF0
aF7.0000000000000009
aF0.33333333333333331
aF-429.33333333333337
aF-66.666666666666657
aF95.666666666666671
aF-264
aF11
aF0
aI713
aF258.11610071692422
aS'H'
aS'H'
ag5
(S'\x07\xdc\x0b\x18'
tRp327
aS'Man United'
p328
aS'QPR'
p329
aa(lp330
F-1
aF0.5
aF-1
aF-1.3333333333333333
aF-0.33333333333333331
aF0.16666666666666669
aNaF-1.3333333333333333
aF-1.3333333333333333
aF0
aF0
aF-0.83333333333333326
aF1
aF2.6666666666666665
aF1.6666666666666667
aF0.5
aNaF2
aF3
aF0.33333333333333331
aF0.33333333333333331
aF-0.33333333333333331
aF0
aF0
aF-0.33333333333333331
aF-1.3333333333333333
aNaF-0.33333333333333331
aF-0.33333333333333331
aF-1
aF-16
aF-10.666666666666666
aF-914.66666666666674
aF-360
aF-12.333333333333329
aF186.66666666666666
aF-3.6666666666666661
aF0.33333333333333331
aI-192
aF283.38430258525636
aS'D'
aS'A'
ag5
(S'\x07\xdc\n\x15'
tRp331
aS'QPR'
p332
aS'Everton'
p333
aa(lp334
F0.33333333333333326
aF-0.16666666666666669
aF1.3333333333333333
aF0.33333333333333331
aNaF2.5
aF0.83333333333333326
aF1.3333333333333333
aF1.6666666666666667
aF3
aF0
aF-0.16666666666666669
aF-1
aF-0.66666666666666674
aNaF-0.5
aF0
aF-2
aF-0.33333333333333331
aF-3
aF0.33333333333333331
aF0.33333333333333331
aF0.33333333333333331
aF0.33333333333333331
aNaF0
aF-0.16666666666666669
aF0.33333333333333331
aF0
aF0
aF9.3333333333333321
aF5
aF708.33333333333337
aF413.00000000000006
aF135.66666666666666
aF63
aF-18.333333333333332
aF-0.33333333333333331
aI4992
aF258.11610071692422
aS'H'
aS'H'
ag5
(S'\x07\xdc\x04\x08'
tRp335
aS'Man United'
p336
aS'QPR'
p337
aa(lp338
F-0.33333333333333326
aF-0.33333333333333331
aF-0.33333333333333331
aF-1.3333333333333333
aF0
aF0.16666666666666669
aNaF-0.33333333333333331
aF-1.3333333333333333
aF0.33333333333333331
aF-0.33333333333333331
aF0.66666666666666674
aF0.66666666666666674
aF0.66666666666666674
aF-0.33333333333333326
aF0.5
aNaF1
aF3
aF1
aF0
aF-0.33333333333333331
aF-0.33333333333333331
aF0
aF-0.33333333333333331
aF-1.3333333333333333
aNaF-1.3333333333333333
aF-0.33333333333333331
aF-1.3333333333333333
aF-2.333333333333333
aF0
aF765.33333333333337
aF205.33333333333331
aF99
aF22.333333333333314
aF1
aF1.3333333333333333
aI-648
aF283.38430258525636
aS'D'
aS'A'
ag5
(S'\x07\xdc\x03\x03'
tRp339
aS'QPR'
p340
aS'Everton'
p341
aa(lp342
F-0.33333333333333326
aF-0.33333333333333331
aF-1.3333333333333333
aF-0.33333333333333331
aNaF-3
aF-0.33333333333333326
aF-1.3333333333333333
aF-1.3333333333333333
aF-2.6666666666666665
aF-0.33333333333333331
aF0.66666666666666674
aF1
aF0.66666666666666674
aNaF1
aF0
aF0
aF1.3333333333333333
aF0.33333333333333331
aF0
aF-0.33333333333333331
aF-0.33333333333333331
aF-0.33333333333333331
aNaF0
aF-0.33333333333333331
aF-0.33333333333333331
aF0
aF0.33333333333333331
aF-10.666666666666666
aF-2.6666666666666665
aF-682.33333333333326
aF-398.66666666666669
aF-144
aF-179.66666666666669
aF-1.3333333333333333
aF0
aI-1040
aF258.11610071692422
aS'A'
aS'A'
ag5
(S'\x07\xdb\x0c\x12'
tRp343
aS'QPR'
p344
aS'Man United'
p345
aasS'Stoke'
p346
(lp347
(lp348
F-1.3333333333333333
aF-2.6666666666666665
aF0
aF-0.33333333333333331
aNaF-1.3333333333333333
aF-0.33333333333333331
aF-3
aF-1.3333333333333333
aF-3
aF3
aF0
aF-0.33333333333333331
aF-1
aNaF0
aF0
aF1.3333333333333333
aF1
aF1.3333333333333333
aF-0.33333333333333331
aF1.3333333333333333
aF1
aF1.3333333333333333
aNaF1.3333333333333333
aF1
aF0.33333333333333331
aF0.33333333333333331
aF0.33333333333333331
aF-2.6666666666666665
aF-1.3333333333333333
aF-336.00000000000006
aF-99
aF-68.000000000000014
aF557.33333333333337
aF16
aF0
aI-4773
aF53.323400364781961
aS'A'
aS'A'
ag5
(S'\x07\xdd\x04\x0e'
tRp349
ag346
aS'Man United'
p350
aa(lp351
F0.33333333333333331
aF-0.33333333333333331
aF1
aF1.3333333333333333
aF0.33333333333333331
aF0.33333333333333331
aNaF1.3333333333333333
aF1.3333333333333333
aF1.3333333333333333
aF-1.6666666666666667
aF1.3333333333333333
aF0.33333333333333331
aF-0.33333333333333331
aF-1
aF-0.33333333333333331
aNaF-1.3333333333333333
aF-1
aF-3
aF0
aF-1
aF-1.3333333333333333
aF-1
aF0
aF0
aNaF0
aF-0.33333333333333331
aF0.33333333333333331
aF11.666666666666666
aF3
aF233.33333333333337
aF121
aF168
aF-144
aF6.666666666666667
aF0.33333333333333331
aI1148
aF72.664635257232376
aS'H'
aS'H'
ag5
(S'\x07\xdd\x03\x1e'
tRp352
aS'Everton'
p353
aS'Stoke'
p354
aa(lp355
F-1.3333333333333333
aF0.33333333333333331
aF-1
aF-0.33333333333333331
aF-0.33333333333333331
aF-0.33333333333333331
aNaF-1.3333333333333333
aF1
aF3
aF1
aF-1.3333333333333333
aF0
aF0
aF1
aF0.33333333333333331
aNaF1.3333333333333333
aF0
aF-0.33333333333333331
aF0.33333333333333331
aF1
aF0.33333333333333331
aF1
aF0
aF0
aNaF0
aF-1
aF-1.3333333333333333
aF-2.333333333333333
aF-1.3333333333333333
aF-399
aF-198.33333333333334
aF17.333333333333329
aF77.000000000000057
aF3.6666666666666661
aF0.33333333333333331
aI-147
aF72.664635257232376
aS'D'
aS'A'
ag5
(S'\x07\xdc\x0c\x0f'
tRp356
aS'Stoke'
p357
aS'Everton'
p358
aa(lp359
F1.3333333333333333
aF1
aF1
aF0.33333333333333331
aNaF1.3333333333333333
aF-1
aF2.6666666666666665
aF1
aF1.3333333333333333
aF-1.3333333333333333
aF0
aF0
aF1
aNaF0
aF0.33333333333333331
aF-1.3333333333333333
aF0
aF-1
aF0
aF-1
aF-0.33333333333333331
aF-1.3333333333333333
aNaF-1.3333333333333333
aF0
aF0
aF-0.33333333333333331
aF-0.33333333333333331
aF14.999999999999998
aF0
aF147
aF81.666666666666671
aF42.666666666666671
aF-368.33333333333337
aF-9.3333333333333321
aF0
aI161
aF53.323400364781961
aS'H'
aS'H'
ag5
(S'\x07\xdc\n\x14'
tRp360
aS'Man United'
p361
aS'Stoke'
p362
aa(lp363
F-1.3333333333333333
aF0.33333333333333331
aF-1
aF-1.3333333333333333
aF0
aF-0.33333333333333331
aNaF-1
aF-1.3333333333333333
aF0
aF0
aF-1
aF0
aF1
aF0
aF1.3333333333333333
aNaF1.3333333333333333
aF0.33333333333333331
aF0
aF1.3333333333333333
aF0
aF0.33333333333333331
aF0.33333333333333331
aF0
aF-1
aNaF-0.33333333333333331
aF1
aF0
aF-46.666666666666664
aF-5
aF-700
aF-253.33333333333331
aF7
aF-77.333333333333314
aF0
aF0
aI-752
aF72.664635257232376
aS'D'
aS'A'
ag5
(S'\x07\xdc\x05\x01'
tRp364
aS'Stoke'
p365
aS'Everton'
p366
aa(lp367
F1.3333333333333333
aF0
aF1
aF0.33333333333333331
aNaF3
aF0
aF1
aF1
aF1
aF0
aF0
aF-1.3333333333333333
aF-1
aNaF-0.33333333333333331
aF-0.33333333333333331
aF-1.3333333333333333
aF0
aF0
aF-1.3333333333333333
aF0
aF0.33333333333333331
aF0
aNaF-1.3333333333333333
aF0.33333333333333331
aF0.33333333333333331
aF-0.33333333333333331
aF-0.33333333333333331
aF5.3333333333333339
aF0
aF238.33333333333331
aF117.00000000000001
aF106.33333333333334
aF0
aF0
aF0
aI1701
aF53.323400364781961
aS'H'
aS'H'
ag5
(S'\x07\xdc\x01\x1f'
tRp368
aS'Man United'
p369
aS'Stoke'
p370
aa(lp371
F0.33333333333333331
aF-1
aF0.33333333333333331
aF1.3333333333333333
aF0
aF0.33333333333333331
aNaF1
aF1
aF0.33333333333333331
aF0
aF0
aF-2.6666666666666665
aF0
aF0
aF-0.33333333333333331
aNaF-1.3333333333333333
aF-1
aF-1.6666666666666667
aF-1
aF0.33333333333333331
aF0.33333333333333331
aF-1.3333333333333333
aF0
aF0
aNaF0.33333333333333331
aF0
aF0
aF0
aF0
aF260.00000000000006
aF172.33333333333331
aF10.333333333333329
aF75
aF0
aF0
aI31
aF72.664635257232376
aS'A'
aS'H'
ag5
(S'\x07\xdb\x0c\x04'
tRp372
aS'Everton'
p373
aS'Stoke'
p374
aa(lp375
F0
aF1
aF2.6666666666666665
aF1.3333333333333333
aNaF3
aF0
aF1
aF0
aF1.6666666666666667
aF-1
aF0
aF-1.3333333333333333
aF-0.33333333333333331
aNaF0
aF0
aF-0.33333333333333331
aF-0.33333333333333331
aF0
aF0
aF-0.33333333333333331
aF0
aF-1
aNaF-3
aF0
aF0
aF0.33333333333333331
aF-0.33333333333333331
aF3.0000000000000009
aF1
aF-61
aF-37.000000000000014
aF8.9999999999999929
aF-225
aF-15
aF0
aI952
aF53.323400364781961
aS'H'
aS'H'
ag5
(S'\x07\xdb\x01\x04'
tRp376
aS'Man United'
p377
aS'Stoke'
p378
aa(lp379
F-0.33333333333333331
aF0
aF0.33333333333333331
aF-3
aF-0.33333333333333331
aF-1.3333333333333333
aNaF0
aF0
aF-0.33333333333333331
aF3
aF-1
aF1
aF0.33333333333333331
aF2.6666666666666665
aF0
aNaF0.33333333333333331
aF1.3333333333333333
aF1.3333333333333333
aF-1.3333333333333333
aF0.33333333333333331
aF-1.3333333333333333
aF1.3333333333333333
aF-0.33333333333333331
aF2.6666666666666665
aNaF-1
aF-1.3333333333333333
aF-1
aF-1.6666666666666667
aF-3
aF197.33333333333337
aF76.000000000000014
aF76.000000000000014
aF-27
aF3.0000000000000009
aF-0.33333333333333331
aI92
aF72.664635257232376
aS'H'
aS'H'
ag5
(S'\x07\xdb\x01\x01'
tRp380
aS'Stoke'
p381
aS'Everton'
p382
aa(lp383
F0.5
aF0.33333333333333331
aF-0.33333333333333331
aF2
aF0.33333333333333331
aF2
aNaF0
aF1
aF0
aF-3
aF0.83333333333333326
aF-1
aF-0.5
aF-2.6666666666666665
aF0
aNaF0
aF-1.3333333333333333
aF-1
aF0.5
aF-0.5
aF1.3333333333333333
aF-0.5
aF0.33333333333333331
aF-2
aNaF0
aF0.33333333333333331
aF0.33333333333333331
aF5.3333333333333339
aF1.3333333333333333
aF-98.333333333333314
aF-10.333333333333329
aF-24
aF246.99999999999997
aF-9
aF0
aI0
aF72.664635257232376
aS'H'
aS'H'
ag5
(S'\x07\xda\n\x1e'
tRp384
aS'Everton'
p385
aS'Stoke'
p386
aa(lp387
F0
aF-1.3333333333333333
aF-1.6666666666666667
aF-2
aNaF-2
aF-0.33333333333333331
aF0.16666666666666669
aF1.3333333333333333
aF1.3333333333333333
aF1
aF0.16666666666666669
aF1.3333333333333333
aF0.5
aNaF0
aF-0.33333333333333331
aF0
aF0.33333333333333331
aF0
aF0
aF0.5
aF0
aF0.5
aNaF2
aF1.6666666666666667
aF-0.83333333333333326
aF-3
aF-2.6666666666666665
aF0
aF-3
aF-96
aF-35
aF-12.333333333333329
aF-142.33333333333331
aF0
aF0
aI-96
aF53.323400364781961
aS'A'
aS'A'
ag5
(S'\x07\xda\n\x18'
tRp388
aS'Stoke'
p389
aS'Man United'
p390
aa(lp391
F0
aF0.5
aF1.5
aF2
aNaF2
aF0.5
aF0
aF2.6666666666666665
aF1
aF0
aF0
aF-0.5
aF-0.5
aNaF0
aF0.5
aF0
aF-0.33333333333333331
aF0
aF0
aF-0.5
aF0
aF-0.5
aNaF-2
aF-2
aF0
aF-0.33333333333333331
aF-0.33333333333333331
aF8
aF0.33333333333333331
aF454.66666666666663
aF100
aF29.333333333333336
aF124
aF-6.666666666666667
aF0
aI4515
aF53.323400364781961
aS'H'
aS'H'
ag5
(S'\x07\xda\x05\t'
tRp392
aS'Man United'
p393
aS'Stoke'
p394
aa(lp395
F-0.5
aF0
aF0.5
aF-2
aF-0.5
aF-2
aNaF0
aF-1.3333333333333333
aF0
aF2
aF-1.5
aF0
aF0.5
aF0.5
aF0
aNaF0
aF1.3333333333333333
aF1.3333333333333333
aF-0.5
aF0.5
aF-0.5
aF0.5
aF0
aF2
aNaF0
aF0
aF-1.3333333333333333
aF-15.999999999999998
aF-1
aF-330.66666666666663
aF-155
aF-55.999999999999993
aF0
aF0
aF0
aI-1400
aF72.664635257232376
aS'D'
aS'A'
ag5
(S'\x07\xda\x05\x01'
tRp396
aS'Stoke'
p397
aS'Everton'
p398
aa(lp399
F0
aF0
aF0
aF0
aF0
aF1
aNaF-1
aF1.3333333333333333
aF1
aF-1
aF-1
aF0
aF0
aF-1
aF0
aNaF0
aF-1
aF0
aF0
aF0
aF0
aF0
aF0
aF0
aNaF0
aF-0.33333333333333331
aF-1
aF7.0000000000000009
aF2.6666666666666665
aF346.66666666666669
aF181.33333333333334
aF27
aF225
aF-6.666666666666667
aF0
aI17
aF72.664635257232376
aS'D'
aS'H'
ag5
(S'\x07\xd9\n\x04'
tRp400
aS'Everton'
p401
aS'Stoke'
p402
aa(lp403
F0
aF0
aF-1
aF-1
aNaF-1
aF0
aF1
aF-1.6666666666666667
aF-0.5
aF1
aF1
aF0
aF0
aNaF0
aF0
aF0
aF0.33333333333333331
aF0.5
aF0
aF0
aF0
aF0
aNaF0
aF0
aF0
aF0.33333333333333331
aF0
aF-21.5
aF-3.166666666666667
aF-479
aF-213
aF-66.666666666666657
aF-29
aF0.33333333333333393
aF-0.5
aI-161
aF53.323400364781961
aS'A'
aS'A'
ag5
(S'\x07\xd9\t\x1a'
tRp404
aS'Stoke'
p405
aS'Man United'
p406
aasS'Tottenham'
p407
(lp408
(lp409
F-0.33333333333333331
aF0.33333333333333331
aNaF-1.3333333333333333
aF0
aF1
aNaF0
aF-2.6666666666666665
aF1.3333333333333333
aF-1
aF-1
aNaF3
aF0
aF0.33333333333333331
aNaF0
aF1.3333333333333333
aF-1
aF1.3333333333333333
aF0
aNaF-0.33333333333333331
aF0
aF-1.3333333333333333
aNaF0
aF0
aF-0.33333333333333331
aF-6.666666666666667
aF0
aF-213.33333333333337
aF-64
aF-185
aF-170.66666666666669
aF0
aF-0.33333333333333331
aI648
aF283.10486349992709
aS'D'
aS'H'
ag5
(S'\x07\xdd\x04\x07'
tRp410
ag407
aS'Everton'
p411
aa(lp412
F-1.3333333333333333
aF-1.6666666666666667
aNaF-0.33333333333333331
aNaF0
aF0
aF-1.6666666666666667
aF-1.6666666666666667
aF0
aF0.33333333333333331
aF0
aNaF1.6666666666666667
aNaF0
aF1
aF0
aF0
aF0
aF1
aF0.33333333333333331
aNaF0
aNaF0
aF-0.33333333333333331
aF0.33333333333333331
aF0.33333333333333331
aF0
aF-12.999999999999998
aF-5
aF659.99999999999989
aF225
aF117.33333333333334
aF59
aF2.333333333333333
aF0
aI-1425
aF255.76042811298186
aS'D'
aS'A'
ag5
(S'\x07\xdd\x01\x14'
tRp413
aS'Tottenham'
p414
aS'Man United'
p415
aa(lp416
F1.3333333333333333
aF-1.3333333333333333
aNaF0.33333333333333331
aF0
aF-1
aNaF0
aF-3
aF0
aF0
aF1.3333333333333333
aNaF-2.6666666666666665
aF-1
aF-0.33333333333333331
aNaF0
aF0
aF-1.3333333333333333
aF-1.3333333333333333
aF0
aNaF0.33333333333333331
aF0.33333333333333331
aF1.3333333333333333
aNaF0
aF3
aF1.3333333333333333
aF-18.333333333333332
aF0
aF-368.33333333333337
aF-33.333333333333343
aF36
aF309.33333333333331
aF-2.333333333333333
aF0
aI-147
aF283.10486349992709
aS'H'
aS'H'
ag5
(S'\x07\xdc\x0c\t'
tRp417
aS'Everton'
p418
aS'Tottenham'
p419
aa(lp420
F1.3333333333333333
aF-1
aNaF1.3333333333333333
aF0
aF-1
aNaF-1
aF0
aF1.3333333333333333
aF0
aF0.33333333333333331
aNaF-2.6666666666666665
aF0
aF0
aNaF0
aF-1.3333333333333333
aF-1.3333333333333333
aF-1.3333333333333333
aF0
aNaF0
aF0
aF1
aNaF1
aF1.3333333333333333
aF0
aF-16
aF-10.666666666666666
aF-420
aF-76.000000000000014
aF-37.333333333333329
aF189
aF-10.666666666666666
aF-0.33333333333333331
aI-1653
aF283.10486349992709
aS'H'
aS'A'
ag5
(S'\x07\xdc\x03\n'
tRp421
aS'Everton'
p422
aS'Tottenham'
p423
aa(lp424
F-1.3333333333333333
aF1
aNaF-0.33333333333333331
aNaF-1.6666666666666667
aF-1
aF0
aF-1
aF0
aF0.33333333333333331
aF-0.33333333333333331
aNaF2.6666666666666665
aNaF0
aF0.33333333333333331
aF0
aF0.33333333333333331
aF0
aF1
aF0
aNaF-0.33333333333333331
aNaF0.33333333333333331
aF0
aF0
aF0
aF0
aF0
aF11.666666666666666
aF-23.666666666666686
aF-88.000000000000014
aF-8.9999999999999929
aF-63
aF11
aF0.33333333333333331
aI-912
aF255.76042811298186
aS'A'
aS'A'
ag5
(S'\x07\xdc\x03\x04'
tRp425
aS'Tottenham'
p426
aS'Man United'
p427
aa(lp428
F-0.33333333333333331
aF2.6666666666666665
aNaF-1.3333333333333333
aF0
aF0
aNaF1
aF1
aF1
aF0
aF-0.33333333333333331
aNaF1
aF0
aF0.33333333333333331
aNaF0
aF-0.33333333333333331
aF-0.33333333333333331
aF1
aF-0.33333333333333331
aNaF0.33333333333333331
aF0
aF-1
aNaF-1
aF0
aF0
aF2.333333333333333
aF0.33333333333333331
aF525.66666666666674
aF205.33333333333331
aF172.33333333333331
aF-223.99999999999997
aF-2.333333333333333
aF0
aI1188
aF283.10486349992709
aS'H'
aS'H'
ag5
(S'\x07\xdc\x01\x0b'
tRp429
aS'Tottenham'
p430
aS'Everton'
p431
aa(lp432
F0.33333333333333331
aF0
aNaF0
aNaF-1.6666666666666667
aF0
aF-1
aF0
aF1
aF-1.6666666666666667
aF0
aNaF0
aNaF0.33333333333333331
aF0
aF0.33333333333333331
aF0.33333333333333331
aF0
aF0.33333333333333331
aF0
aNaF0
aNaF0
aF0
aF0
aF-0.33333333333333331
aF-1
aF-3.0000000000000009
aF0
aF144
aF96.000000000000014
aF21.333333333333329
aF41.333333333333314
aF-6.666666666666667
aF0.33333333333333331
aI-640
aF255.76042811298186
aS'D'
aS'A'
ag5
(S'\x07\xdb\x01\x10'
tRp433
aS'Tottenham'
p434
aS'Man United'
p435
aa(lp436
F0
aF-1
aNaF1.6666666666666667
aF0.33333333333333331
aF0
aNaF0
aF-2.6666666666666665
aF-1.3333333333333333
aF-0.33333333333333331
aF1
aNaF0
aF-2.6666666666666665
aF-0.33333333333333331
aNaF-0.33333333333333331
aF0.33333333333333331
aF1.3333333333333333
aF1
aF0
aNaF-0.33333333333333331
aF0.33333333333333331
aF0.33333333333333331
aNaF1
aF0.33333333333333331
aF0
aF-5.3333333333333339
aF1.6666666666666667
aF-165.66666666666669
aF-100.33333333333334
aF-60
aF111.66666666666669
aF-13.333333333333332
aF-1
aI-812
aF283.10486349992709
aS'H'
aS'A'
ag5
(S'\x07\xdb\x01\x05'
tRp437
aS'Everton'
p438
aS'Tottenham'
p439
aa(lp440
F-0.5
aF0.83333333333333326
aNaF0.66666666666666674
aNaF0.66666666666666674
aF0
aF-0.16666666666666669
aF-1
aF1
aF1.5
aF-0.16666666666666669
aNaF0
aNaF-0.33333333333333331
aF0.33333333333333331
aF-0.5
aF0
aF-0.33333333333333331
aF0
aF0
aNaF-0.33333333333333331
aNaF0
aF-1
aF1.3333333333333333
aF1
aF0
aF-3.0000000000000009
aF0
aF-224.00000000000006
aF-84
aF-152
aF-176
aF0
aF0
aI64
aF255.76042811298186
aS'H'
aS'H'
ag5
(S'\x07\xda\n\x1e'
tRp441
aS'Man United'
p442
aS'Tottenham'
p443
aa(lp444
F0
aF0.16666666666666669
aNaF-0.66666666666666674
aF-0.33333333333333331
aF-0.66666666666666674
aNaF0
aF0
aF2.6666666666666665
aF0.5
aF-0.83333333333333326
aNaF0
aF1.6666666666666667
aF0.33333333333333331
aNaF0.5
aF0.33333333333333331
aF0
aF-0.5
aF0
aNaF0.33333333333333331
aF-0.33333333333333331
aF0
aNaF-0.5
aF-0.33333333333333331
aF-1.3333333333333333
aF0
aF1
aF425.00000000000006
aF122.66666666666667
aF153.33333333333331
aF-22.333333333333314
aF-1.6666666666666667
aF0
aI115
aF283.10486349992709
aS'D'
aS'H'
ag5
(S'\x07\xda\n\x17'
tRp445
aS'Tottenham'
p446
aS'Everton'
p447
aa(lp448
F-0.5
aF0
aNaF1
aNaF0
aF0
aF-0.5
aF-1
aF0
aF1.5
aF0
aNaF0
aNaF0
aF0.5
aF-0.5
aF0
aF0
aF0
aF0
aNaF0
aNaF0
aF-0.5
aF1
aF0.33333333333333331
aF0
aF-7.0000000000000009
aF-3
aF-266.66666666666669
aF-232.33333333333331
aF-101.33333333333334
aF73
aF3.6666666666666661
aF0
aI1680
aF255.76042811298186
aS'H'
aS'H'
ag5
(S'\x07\xda\x04\x18'
tRp449
aS'Man United'
p450
aS'Tottenham'
p451
aa(lp452
F-0.5
aF0.5
aNaF0
aF-0.5
aF0
aNaF0.5
aF-1
aF0
aF1
aF-1.5
aNaF0
aF0.5
aF0
aNaF0
aF0
aF-0.33333333333333331
aF-0.5
aF0
aNaF0
aF0
aF0
aNaF-0.5
aF0.33333333333333331
aF1
aF-5.3333333333333339
aF-1
aF675
aF245.33333333333331
aF50.666666666666671
aF-405
aF-18.666666666666664
aF-0.33333333333333331
aI672
aF283.10486349992709
aS'H'
aS'H'
ag5
(S'\x07\xda\x02\x1c'
tRp453
aS'Tottenham'
p454
aS'Everton'
p455
aa(lp456
F0
aF-1
aNaF0
aF0
aF0
aNaF-1
aF-1.3333333333333333
aF-0.33333333333333331
aF-1
aF1
aNaF0
aF0
aF0
aNaF0
aF3
aF0
aF0
aF0
aNaF0
aF0
aF0
aNaF0
aF-0.33333333333333331
aF1
aF-46.666666666666664
aF-1.3333333333333333
aF-979
aF-475.00000000000006
aF-111.00000000000001
aF402.33333333333337
aF13.333333333333332
aF0
aI-451
aF283.10486349992709
aS'D'
aS'A'
ag5
(S'\x07\xd9\x0c\x06'
tRp457
aS'Everton'
p458
aS'Tottenham'
p459
aasS'Southampton'
p460
(lp461
(lp462
F1.3333333333333333
aF3
aF0.33333333333333331
aF0.33333333333333331
aNaF1.3333333333333333
aF0.33333333333333331
aF3
aF1
aF2.6666666666666665
aF0
aF-1
aF-0.66666666666666674
aF0.33333333333333326
aNaF-0.66666666666666674
aF-0.16666666666666669
aF-1
aF0
aF0
aF-0.66666666666666674
aF0
aF0.33333333333333331
aF0
aNaF0
aF-0.16666666666666669
aF0
aF-1
aF-1.3333333333333333
aF13.333333333333332
aF5
aF67
aF68.333333333333343
aF-51.666666666666664
aF42.666666666666686
aF9
aF0
aI2607
aF290.89716690777777
aS'H'
aS'H'
ag5
(S'\x07\xdd\x01\x1e'
tRp463
aS'Man United'
p464
ag460
aa(lp465
F-0.33333333333333331
aF0
aF-1.3333333333333333
aF-0.33333333333333331
aF-0.33333333333333331
aF-0.33333333333333331
aNaF-1.3333333333333333
aF0
aF-1
aF-1.3333333333333333
aF-0.33333333333333326
aF0.66666666666666674
aF0.66666666666666674
aF0.66666666666666674
aF1
aNaF1
aF-0.33333333333333331
aF0.33333333333333331
aF1
aF-0.33333333333333331
aF0
aF-0.33333333333333331
aF-0.33333333333333331
aF-1.3333333333333333
aNaF-0.33333333333333331
aF1
aF0
aF2.333333333333333
aF0
aF-165.33333333333331
aF-77
aF-93
aF-159.99999999999997
aF-5.3333333333333339
aF0
aI-885
aF301.43442462145998
aS'D'
aS'A'
ag5
(S'\x07\xdd\x01\x15'
tRp466
aS'Southampton'
p467
aS'Everton'
p468
aasS'West Ham'
p469
(lp470
(lp471
F-1
aF-2.6666666666666665
aF-0.33333333333333331
aF-0.33333333333333331
aNaF-1
aF-0.33333333333333331
aF-3
aF-1
aF-1.6666666666666667
aF1.3333333333333333
aF0.33333333333333331
aF1
aF0
aNaF1
aF0
aF1.3333333333333333
aF-0.33333333333333331
aF0.33333333333333331
aF-0.33333333333333331
aF0.33333333333333331
aF0
aF0.33333333333333331
aNaF0
aF1
aF0.33333333333333331
aF1.3333333333333333
aF0
aF0
aF0
aF-108.33333333333331
aF0
aF-121
aF21
aF0
aF0
aI-4956
aF266.43730284713479
aS'D'
aS'A'
ag5
(S'\x07\xdd\x04\x11'
tRp472
ag469
aS'Man United'
p473
aa(lp474
F-1
aF0.33333333333333331
aF-1
aF-0.33333333333333331
aF-0.33333333333333331
aF0
aNaF-1.3333333333333333
aF0
aF0.33333333333333331
aF1
aF0
aF0
aF1
aF2.6666666666666665
aF1.3333333333333333
aNaF1.3333333333333333
aF0.33333333333333331
aF0
aF0
aF-0.33333333333333331
aF0.33333333333333331
aF0
aF-0.33333333333333331
aF-1.3333333333333333
aNaF0
aF-1
aF-1
aF3.0000000000000009
aF0
aF23
aF0
aF42.666666666666671
aF23.666666666666686
aF5.3333333333333339
aF0
aI-200
aF293.8689905604333
aS'A'
aS'A'
ag5
(S'\x07\xdc\x0c\x16'
tRp475
aS'West Ham'
p476
aS'Everton'
p477
aa(lp478
F1.3333333333333333
aF1
aF1
aF0.33333333333333331
aNaF1
aF0.33333333333333331
aF3
aF1
aF2.6666666666666665
aF-3
aF-1.3333333333333333
aF0
aF0
aNaF-1
aF0.33333333333333331
aF-1.3333333333333333
aF0
aF-1.3333333333333333
aF0.33333333333333331
aF0.33333333333333331
aF-0.33333333333333331
aF-0.33333333333333331
aNaF0
aF-2.6666666666666665
aF-0.33333333333333331
aF-0.33333333333333331
aF0
aF9
aF-0.33333333333333331
aF184.33333333333337
aF64
aF135
aF-207.99999999999997
aF-5.3333333333333339
aF0
aI539
aF266.43730284713479
aS'H'
aS'H'
ag5
(S'\x07\xdc\x0b\x1c'
tRp479
aS'Man United'
p480
aS'West Ham'
p481
aa(lp482
F0
aF-1
aF-1
aF-1.3333333333333333
aNaF-1.6666666666666667
aF-0.33333333333333331
aF-1
aF1
aF1
aF-1.6666666666666667
aF1
aF0.33333333333333331
aF1.3333333333333333
aNaF0.33333333333333331
aF-0.33333333333333331
aF0.33333333333333331
aF-1.3333333333333333
aF-1
aF0.33333333333333331
aF0
aF0
aF0
aNaF0
aF2.6666666666666665
aF0
aF0.33333333333333331
aF0
aF9
aF5
aF135.00000000000006
aF64
aF-33
aF-44
aF-3.0000000000000009
aF-1.3333333333333333
aI-2945
aF266.43730284713479
aS'A'
aS'A'
ag5
(S'\x07\xdb\x04\x02'
tRp483
aS'West Ham'
p484
aS'Man United'
p485
aa(lp486
F0.33333333333333331
aF0.33333333333333331
aF0
aF3
aF0.33333333333333331
aF0
aNaF0
aF0
aF0
aF-1.3333333333333333
aF-2.6666666666666665
aF-1
aF-1.3333333333333333
aF-2.6666666666666665
aF-0.33333333333333331
aNaF-0.33333333333333331
aF-1
aF0
aF1
aF0.33333333333333331
aF0.33333333333333331
aF-0.33333333333333331
aF0.33333333333333331
aF0.33333333333333331
aNaF1
aF0.33333333333333331
aF0
aF4
aF0.33333333333333331
aF325.00000000000006
aF135
aF27
aF352
aF-7.0000000000000009
aF0
aI276
aF293.8689905604333
aS'D'
aS'H'
ag5
(S'\x07\xdb\x01\x16'
tRp487
aS'Everton'
p488
aS'West Ham'
p489
aa(lp490
F-0.33333333333333331
aF-0.33333333333333331
aF0.33333333333333331
aF-3
aF-0.33333333333333331
aF0
aNaF0
aF0
aF0
aF1.3333333333333333
aF1.6666666666666667
aF1
aF1.3333333333333333
aF2.6666666666666665
aF0.33333333333333331
aNaF0.33333333333333331
aF0.33333333333333331
aF0.33333333333333331
aF-1
aF0
aF-1.3333333333333333
aF0.33333333333333331
aF-0.33333333333333331
aF-0.33333333333333331
aNaF-1
aF-1
aF-1
aF5.3333333333333339
aF0
aF-46.666666666666686
aF-51.666666666666664
aF-7
aF-156.33333333333331
aF-12.999999999999998
aF-0.33333333333333331
aI-185
aF293.8689905604333
aS'D'
aS'A'
ag5
(S'\x07\xda\x0c\x1c'
tRp491
aS'West Ham'
p492
aS'Everton'
p493
aa(lp494
F0.5
aF0
aF0
aF2
aF0.5
aF2
aNaF0.5
aF1.3333333333333333
aF3
aF-0.5
aF1
aF-1.5
aF-1
aF-1.5
aF-1
aNaF0
aF-3
aF-3
aF0
aF0
aF0.5
aF0
aF0
aF0
aNaF-0.5
aF0.33333333333333331
aF0
aF5
aF0.33333333333333331
aF245.33333333333337
aF173.33333333333331
aF11
aF-351.00000000000006
aF0
aF0
aI1672
aF293.8689905604333
aS'D'
aS'H'
ag5
(S'\x07\xda\x04\x04'
tRp495
aS'Everton'
p496
aS'West Ham'
p497
aa(lp498
F0
aF0
aF1
aF1
aNaF2
aF0.5
aF0
aF-1
aF3
aF1
aF0
aF-2
aF-1
aNaF-1
aF-0.5
aF0
aF0
aF-0.33333333333333331
aF-1
aF0
aF0
aF0
aNaF0
aF0
aF0
aF0.33333333333333331
aF-1.3333333333333333
aF4.3333333333333321
aF4
aF-291
aF-242.66666666666669
aF224
aF-201
aF0
aF0.33333333333333331
aI2520
aF266.43730284713479
aS'H'
aS'H'
ag5
(S'\x07\xda\x02\x17'
tRp499
aS'Man United'
p500
aS'West Ham'
p501
aa(lp502
F0
aF0
aF-1
aF-1
aNaF-1
aF-1
aF0
aF-1
aF1
aF-1
aF0
aF1
aF1
aNaF1
aF1
aF0
aF0
aF-1
aF0
aF0
aF0
aF0
aNaF0
aF0
aF0
aF0.33333333333333331
aF0
aF10.666666666666668
aF7.0000000000000009
aF-306.66666666666663
aF-118.99999999999997
aF-234.33333333333331
aF226.66666666666669
aF-9.3333333333333321
aF0
aI-765
aF266.43730284713479
aS'A'
aS'A'
ag5
(S'\x07\xd9\x0c\x05'
tRp503
aS'West Ham'
p504
aS'Man United'
p505
aa(lp506
F0
aF0
aF0
aF0
aF0
aF-1
aNaF0
aF0.33333333333333331
aF0
aF0
aF1
aF1
aF1
aF0
aF1
aNaF0
aF-0.33333333333333331
aF-1.3333333333333333
aF0
aF0
aF0
aF0
aF0
aF0
aNaF1
aF0
aF1.3333333333333333
aF6.666666666666667
aF1.6666666666666667
aF138.33333333333337
aF61.333333333333343
aF18.666666666666664
aF213.33333333333337
aF18.333333333333332
aF1
aI-44
aF293.8689905604333
aS'A'
aS'H'
ag5
(S'\x07\xd9\x0b\x08'
tRp507
aS'West Ham'
p508
aS'Everton'
p509
aasS'Everton'
p510
(lp511
(lp512
F-0.33333333333333331
aF0.33333333333333331
aF-1.3333333333333333
aF-1
aF-0.33333333333333331
aF2.6666666666666665
aNaNaF0
aF0
aF1.6666666666666667
aF-1
aF1.3333333333333333
aF0.33333333333333331
aF2.6666666666666665
aF0
aNaNaF1.3333333333333333
aF0
aF0
aF0
aF0
aF0
aF-0.33333333333333331
aF-1.3333333333333333
aNaNaF-1.3333333333333333
aF0
aF0
aF0
aF-171
aF-68.000000000000014
aF-37.000000000000014
aF137.66666666666666
aF0
aF0
aI-1980
aF193.56559314115574
aS'H'
aS'A'
ag5
(S'\x07\xdd\x04\x14'
tRp513
aS'Sunderland'
p514
ag510
aa(lp515
F-0.33333333333333331
aF1.3333333333333333
aF0
aF-1
aF-0.33333333333333331
aF1
aNaF0
aF1.6666666666666667
aF3
aF0
aF-1.3333333333333333
aF0.33333333333333331
aF0.33333333333333331
aF2.6666666666666665
aF0.33333333333333331
aNaF0
aF0
aF-1.3333333333333333
aF0.33333333333333331
aF0
aF-0.33333333333333331
aF0
aF-0.33333333333333331
aF-1.3333333333333333
aNaF0
aF-0.33333333333333331
aF-0.33333333333333331
aF18.666666666666664
aF-1.6666666666666667
aF164.00000000000006
aF51
aF15.666666666666657
aF98.333333333333314
aF0
aF0.33333333333333331
aI456
aF285.11763486171071
aS'D'
aS'H'
ag5
(S'\x07\xdd\x04\x10'
tRp516
aS'Arsenal'
p517
aS'Everton'
p518
aag319
ag409
ag351
a(lp519
F-1
aF-0.33333333333333331
aF-1.6666666666666667
aNaF-1
aF-2.6666666666666665
aNaF1
aF-1
aF1
aF1.3333333333333333
aF1.3333333333333333
aF0.33333333333333331
aNaF0
aF0
aNaF-0.33333333333333331
aF1
aF-0.33333333333333331
aF-0.33333333333333331
aF-1
aF0
aNaF0.33333333333333331
aF1.3333333333333333
aNaF0
aF0
aF0
aF0
aF0
aF-106.66666666666669
aF-34.666666666666657
aF37.000000000000014
aF-462.33333333333337
aF-3.0000000000000009
aF0
aI-1456
aF50.938602100397503
aS'H'
aS'A'
ag5
(S'\x07\xdd\x03\x10'
tRp520
aS'Everton'
p521
aS'Man City'
p522
aag61
ag103
a(lp523
F1
aF3
aF-1
aF0
aNaF1
aNaF1.6666666666666667
aF1
aF1.6666666666666667
aF-1.3333333333333333
aF-1.3333333333333333
aF0
aF1
aNaF0.33333333333333331
aNaF0
aF0
aF0
aF0.33333333333333331
aF-0.33333333333333331
aF0.33333333333333331
aF-0.33333333333333331
aNaF-1.3333333333333333
aNaF-0.33333333333333331
aF-1
aF-0.33333333333333331
aF-3.0000000000000009
aF0
aF-316.33333333333337
aF-71.666666666666671
aF-140
aF281.66666666666663
aF14.999999999999998
aF0
aI2080
aF44.782088140421742
aS'H'
aS'H'
ag5
(S'\x07\xdd\x02\n'
tRp524
aS'Man United'
p525
aS'Everton'
p526
aag8
a(lp527
F-1
aF-1.3333333333333333
aF1.3333333333333333
aF0.33333333333333331
aF0.33333333333333331
aF0
aNaF0
aF0.33333333333333331
aF0
aF1
aF1
aF-1
aF-1
aF-2.6666666666666665
aF-0.33333333333333331
aNaF0
aF-1.3333333333333333
aF-1
aF0
aF0.33333333333333331
aF-0.33333333333333331
aF0
aF0.33333333333333331
aF1
aNaF0
aF1
aF0.33333333333333331
aF-7.0000000000000009
aF0
aF-573.33333333333337
aF-61.333333333333343
aF-41.000000000000014
aF-88
aF0
aF0
aI288
aF123.28269845526712
aS'H'
aS'H'
ag5
(S'\x07\xdd\x01\x1e'
tRp528
aS'Everton'
p529
aS'West Brom'
p530
aag465
ag75
ag282
a(lp531
NaF0
aF1
aF0
aF0.33333333333333331
aF-1
aNaF-1.6666666666666667
aF-1.6666666666666667
aF0
aNaF0
aF0.33333333333333331
aF0
aF-1
aF0
aNaF0
aF0
aF-0.33333333333333331
aNaF0
aF-1.3333333333333333
aF0
aF0
aF1
aNaF0.33333333333333331
aF0.33333333333333331
aF0.33333333333333331
aF-39.666666666666664
aF-11.666666666666666
aF-448
aF-223.99999999999997
aF106.66666666666667
aF77.333333333333314
aF-5
aF0.33333333333333331
aI-136
aF287.58493307119272
aS'A'
aS'A'
ag5
(S'\x07\xdc\x0c\x1e'
tRp532
aS'Everton'
p533
aS'Chelsea'
p534
aa(lp535
F1.3333333333333333
aF-0.33333333333333331
aF1
aF0.33333333333333331
aF0
aNaNaF1
aF1.3333333333333333
aF0.33333333333333331
aF-1
aF1
aF-1
aF-2.6666666666666665
aF-1
aNaNaF-1.3333333333333333
aF-1.3333333333333333
aF-3
aF-0.33333333333333331
aF0
aF0
aF0.33333333333333331
aF0.33333333333333331
aNaNaF0.33333333333333331
aF0
aF1.3333333333333333
aF5.3333333333333339
aF0
aF53.333333333333371
aF58.666666666666657
aF-11.666666666666671
aF111.99999999999997
aF0
aF0.33333333333333331
aI675
aF23.975606104337857
aS'H'
aS'H'
ag5
(S'\x07\xdc\x0c\x1a'
tRp536
aS'Everton'
p537
aS'Wigan'
p538
aag474
ag355
ag416
a(lp539
F-1
aF0.33333333333333331
aF1.6666666666666667
aNaF1
aF2.6666666666666665
aNaF-1
aF1.3333333333333333
aF3
aF0
aF-1.3333333333333333
aF-0.33333333333333331
aNaF0
aF0
aNaF0.33333333333333331
aF-0.33333333333333331
aF-0.33333333333333331
aF0.33333333333333331
aF1
aF0
aNaF-0.33333333333333331
aF-1.3333333333333333
aNaF0
aF-1
aF-1.3333333333333333
aF13.333333333333332
aF-2.6666666666666665
aF-64
aF-153
aF49
aF24.333333333333314
aF0
aF0
aI540
aF50.938602100397503
aS'D'
aS'H'
ag5
(S'\x07\xdc\x0c\x01'
tRp540
aS'Man City'
p541
aS'Everton'
p542
aa(lp543
F1
aF-1.3333333333333333
aF0
aF1
aF0.33333333333333331
aF-1
aNaF0
aF0
aF0.33333333333333331
aF0
aF1
aF0
aF0
aF-2.6666666666666665
aF-0.33333333333333331
aNaF0
aF0.33333333333333331
aF-1.3333333333333333
aF-0.33333333333333331
aF0.33333333333333331
aF0
aF-0.33333333333333331
aF0.33333333333333331
aF1.3333333333333333
aNaF0
aF-1
aF1
aF-16
aF-7.0000000000000009
aF306.66666666666663
aF91.666666666666657
aF43
aF23
aF1.6666666666666667
aF0
aI41
aF285.11763486171071
aS'D'
aS'H'
ag5
(S'\x07\xdc\x0b\x1c'
tRp544
aS'Everton'
p545
aS'Arsenal'
p546
aag107
ag69
a(lp547
F1.3333333333333333
aF-0.33333333333333331
aF1.3333333333333333
aF1
aF0.33333333333333331
aF-1
aNaNaF0
aF0.33333333333333331
aF-2.6666666666666665
aF1.3333333333333333
aF-1
aF0
aF-2.6666666666666665
aF-0.33333333333333331
aNaNaF-0.33333333333333331
aF-0.33333333333333331
aF0
aF-1
aF-0.33333333333333331
aF-0.33333333333333331
aF0.33333333333333331
aF1.3333333333333333
aNaNaF1.6666666666666667
aF0
aF8
aF3
aF573.33333333333337
aF209.66666666666666
aF65.000000000000014
aF316.33333333333337
aF6.666666666666667
aF0.33333333333333331
aI208
aF193.56559314115574
aS'H'
aS'H'
ag5
(S'\x07\xdc\x0b\n'
tRp548
aS'Everton'
p549
aS'Sunderland'
p550
aag240
a(lp551
F-1.6666666666666667
aNaF1.3333333333333333
aF1.3333333333333333
aF0.33333333333333331
aF0.33333333333333331
aNaF1.3333333333333333
aF-1
aF0
aF0.33333333333333331
aNaF-1
aF0
aF-1
aF-0.33333333333333331
aNaF-0.33333333333333331
aF0
aF-0.33333333333333331
aF0
aNaF-0.33333333333333331
aF-1.3333333333333333
aF0
aF0
aNaF-1
aF1
aF0.33333333333333331
aF0
aF5.3333333333333339
aF-184
aF0
aF48.000000000000014
aF193.33333333333331
aF11.666666666666666
aF0.33333333333333331
aI144
aF0.98015325743948067
aS'D'
aS'H'
ag5
(S'\x07\xdc\n\x1c'
tRp552
aS'Everton'
p553
aS'Liverpool'
p554
aag330
a(lp555
F-1.3333333333333333
aF0.33333333333333331
aF-1.3333333333333333
aF-1.3333333333333333
aF0
aNaNaF-1
aF-1.3333333333333333
aF1
aF1
aF-1.3333333333333333
aF1
aF2.6666666666666665
aF1
aNaNaF1.3333333333333333
aF3
aF0.33333333333333331
aF0.33333333333333331
aF1
aF0.33333333333333331
aF0
aF-0.33333333333333331
aNaNaF-0.33333333333333331
aF-0.33333333333333331
aF-1.3333333333333333
aF-21
aF-12
aF-980
aF-396
aF-20
aF247.99999999999997
aF11
aF0.33333333333333331
aI-153
aF23.975606104337857
aS'D'
aS'A'
ag5
(S'\x07\xdc\n\x06'
tRp556
aS'Wigan'
p557
aS'Everton'
p558
aag293
a(lp559
F-1
aF0
aF-1.3333333333333333
aF-1.3333333333333333
aF0.33333333333333331
aF0
aNaF0
aF-0.33333333333333331
aF0
aF1
aF1.6666666666666667
aF0
aF2.6666666666666665
aF0
aF1.3333333333333333
aNaF0
aF0.33333333333333331
aF3
aF0
aF-0.33333333333333331
aF1.3333333333333333
aF0
aF-0.33333333333333331
aF-1.3333333333333333
aNaF0
aF0
aF-3
aF-21.666666666666668
aF-7.0000000000000009
aF-121.66666666666669
aF0
aF55.999999999999993
aF-273
aF-4
aF0
aI-2128
aF109.68259618137256
aS'D'
aS'A'
ag5
(S'\x07\xdc\x05\x06'
tRp560
aS'Wolves'
p561
aS'Everton'
p562
aag363
ag244
a(lp563
F0
aF0.33333333333333331
aF0
aF-1
aNaF1
aNaF0
aF0
aF2.6666666666666665
aF-0.33333333333333331
aF-1
aF-0.33333333333333331
aF0
aNaF0.33333333333333331
aNaF0
aF0.33333333333333331
aF-0.33333333333333331
aF0.33333333333333331
aF0
aF0.33333333333333331
aF0.33333333333333331
aNaF-1.3333333333333333
aNaF0
aF-0.33333333333333331
aF-0.33333333333333331
aF-9.3333333333333321
aF1.6666666666666667
aF308.99999999999989
aF137.66666666666666
aF143
aF90.666666666666686
aF3.6666666666666661
aF0
aI4515
aF44.782088140421742
aS'D'
aS'H'
ag5
(S'\x07\xdc\x04\x16'
tRp564
aS'Man United'
p565
aS'Everton'
p566
aa(lp567
F1.3333333333333333
aF-0.33333333333333331
aF1.3333333333333333
aF1
aF0
aF-1
aNaNaF1
aF1.3333333333333333
aF-2.6666666666666665
aF1
aF-1
aF0
aF0
aF-0.33333333333333331
aNaNaF0
aF0
aF0
aF0
aF-0.33333333333333331
aF-0.33333333333333331
aF0
aF1.3333333333333333
aNaNaF-1
aF-1.3333333333333333
aF0
aF-1.6666666666666667
aF125.00000000000006
aF14.333333333333343
aF-99
aF-23.666666666666686
aF7.9999999999999982
aF0
aI172
aF193.56559314115574
aS'H'
aS'H'
ag5
(S'\x07\xdc\x04\t'
tRp568
aS'Everton'
p569
aS'Sunderland'
p570
aag115
a(lp571
F1
aF-0.33333333333333331
aF1.3333333333333333
aF1.3333333333333333
aF0
aF0.33333333333333331
aNaF-1
aF0.33333333333333331
aF1
aF-1
aF0
aF-1
aF-1
aF-1.6666666666666667
aF-0.33333333333333331
aNaF0
aF0
aF0
aF0
aF0.33333333333333331
aF-0.33333333333333331
aF-0.33333333333333331
aF0.33333333333333331
aF0
aNaF1
aF-0.33333333333333331
aF-0.33333333333333331
aF0
aF0
aF-18.333333333333314
aF16
aF-93
aF-101.66666666666669
aF12.999999999999998
aF-0.33333333333333331
aI304
aF123.28269845526712
aS'H'
aS'H'
ag5
(S'\x07\xdc\x03\x1f'
tRp572
aS'Everton'
p573
aS'West Brom'
p574
aag86
a(lp575
F0
aF-0.33333333333333331
aF1
aF1
aF-0.33333333333333331
aF-1
aNaF-1
aF-2.6666666666666665
aF1.6666666666666667
aF0
aF1
aF0
aF0
aF0
aF0
aNaF0
aF0.33333333333333331
aF0
aF0
aF0
aF-0.33333333333333331
aF-0.33333333333333331
aF0.33333333333333331
aF1
aNaF1
aF0.33333333333333331
aF-0.33333333333333331
aF-25.666666666666668
aF-4
aF-740
aF-306.66666666666669
aF-16
aF0
aF9.3333333333333321
aF0
aI-1335
aF285.11763486171071
aS'A'
aS'A'
ag5
(S'\x07\xdc\x03\x15'
tRp576
aS'Everton'
p577
aS'Arsenal'
p578
aa(lp579
F1.6666666666666667
aNaF-1.3333333333333333
aF-1
aF0.33333333333333331
aF-0.33333333333333331
aNaF0
aF-1.3333333333333333
aF0
aF-0.33333333333333331
aNaF1
aF0
aF-1
aF0
aNaF0.33333333333333331
aF3
aF0.33333333333333331
aF0
aNaF0.33333333333333331
aF0.33333333333333331
aF0
aF1.6666666666666667
aNaF-1
aF-0.33333333333333331
aF-1.6666666666666667
aF-4
aF-2.6666666666666665
aF57
aF-21.333333333333329
aF69.333333333333329
aF-104.00000000000006
aF-4
aF0
aI152
aF0.98015325743948067
aS'H'
aS'H'
ag5
(S'\x07\xdc\x03\r'
tRp580
aS'Liverpool'
p581
aS'Everton'
p582
aag420
ag338
a(lp583
NaF0.33333333333333331
aF0
aF0
aF0
aF-1
aNaF-2.6666666666666665
aF0.33333333333333331
aF0
aNaF-2.6666666666666665
aF0.33333333333333331
aF0
aF0
aF0
aNaF0
aF0
aF0.33333333333333331
aNaF0.33333333333333331
aF-1
aF0
aF0
aF1
aNaF1.3333333333333333
aF-1.6666666666666667
aF-1
aF-2.333333333333333
aF0
aF-780
aF-195
aF-220.99999999999997
aF-48
aF-5.3333333333333339
aF-0.33333333333333331
aI-949
aF287.58493307119272
aS'H'
aS'A'
ag5
(S'\x07\xdc\x02\x0b'
tRp584
aS'Everton'
p585
aS'Chelsea'
p586
aa(lp587
F-0.33333333333333331
aF-0.33333333333333331
aF-0.33333333333333331
aF-1.3333333333333333
aF0
aNaNaF0
aF-0.33333333333333331
aF-0.33333333333333331
aF1
aF-0.33333333333333331
aF1
aF2.6666666666666665
aF1.6666666666666667
aNaNaF1.3333333333333333
aF3
aF1
aF0
aF2.6666666666666665
aF0
aF0
aF-0.33333333333333331
aNaNaF-1.3333333333333333
aF-1.3333333333333333
aF0
aF-1.6666666666666667
aF-0.33333333333333331
aF-94.999999999999972
aF-20
aF-32
aF0
aF6.666666666666667
aF0
aI-616
aF23.975606104337857
aS'D'
aS'A'
ag5
(S'\x07\xdc\x02\x04'
tRp588
aS'Wigan'
p589
aS'Everton'
p590
aa(lp591
F0
aF0
aF-2.6666666666666665
aNaF-0.33333333333333331
aF-2.6666666666666665
aNaF0
aF-3
aF0
aF-1
aF0
aF0.33333333333333331
aNaF1
aF0
aNaF-1.3333333333333333
aF0.33333333333333331
aF0
aF0.33333333333333331
aF0
aF0.33333333333333331
aNaF0
aF1.3333333333333333
aNaF1.3333333333333333
aF1.3333333333333333
aF0
aF-14.999999999999998
aF-2.6666666666666665
aF-45.333333333333314
aF-91.000000000000014
aF-72.333333333333329
aF152.00000000000006
aF0
aF-0.33333333333333331
aI-2240
aF50.938602100397503
aS'H'
aS'A'
ag5
(S'\x07\xdc\x01\x1f'
tRp592
aS'Everton'
p593
aS'Man City'
p594
aag177
ag20
ag428
ag136
a(lp595
F-0.33333333333333331
aF0
aF-0.33333333333333331
aF-1.3333333333333333
aF0
aF-0.33333333333333331
aNaF1
aF1
aF-0.33333333333333331
aF2.6666666666666665
aF1
aF0
aF1
aF0
aF1.3333333333333333
aNaF0
aF0
aF1
aF-0.33333333333333331
aF-0.33333333333333331
aF1
aF0.33333333333333331
aF0
aF-1
aNaF-1
aF-1
aF0
aF5.3333333333333339
aF1.3333333333333333
aF-448.00000000000006
aF-95.666666666666671
aF-204.99999999999997
aF-59
aF-2.6666666666666665
aF0
aI43
aF123.28269845526712
aS'A'
aS'H'
ag5
(S'\x07\xdc\x01\x01'
tRp596
aS'West Brom'
p597
aS'Everton'
p598
aa(lp599
F0
aF-0.33333333333333331
aF-0.33333333333333331
aF-1
aF0
aF0
aNaNaF1
aF0
aF1
aF0
aF1
aF0
aF0
aF0.33333333333333331
aNaNaF0
aF-1
aF-0.33333333333333331
aF1
aF0
aF0.33333333333333331
aF0
aF-1
aNaNaF-0.33333333333333331
aF0.33333333333333331
aF7.0000000000000009
aF0.33333333333333331
aF-31.666666666666629
aF118.99999999999997
aF-92
aF-20.333333333333314
aF6.666666666666667
aF0
aI-111
aF193.56559314115574
aS'D'
aS'H'
ag5
(S'\x07\xdb\x0c\x1a'
tRp600
aS'Sunderland'
p601
aS'Everton'
p602
aag90
ag123
a(lp603
F1
aF-0.33333333333333331
aF-0.33333333333333331
aF-1
aF0.33333333333333331
aF1
aNaF-1
aF0
aF0
aF0
aF0
aF1
aF-0.33333333333333331
aF0
aF0
aNaF0
aF-0.33333333333333331
aF-0.33333333333333331
aF-0.33333333333333331
aF1
aF0
aF1.3333333333333333
aF-0.33333333333333331
aF-1
aNaF1
aF0.33333333333333331
aF0.33333333333333331
aF11
aF2.6666666666666665
aF484.99999999999989
aF189
aF15.666666666666657
aF-181.33333333333331
aF1.6666666666666667
aF0
aI420
aF285.11763486171071
aS'H'
aS'H'
ag5
(S'\x07\xdb\x0c\n'
tRp604
aS'Arsenal'
p605
aS'Everton'
p606
aag371
ag140
a(lp607
F0
aF0
aF0.33333333333333331
aF1
aF-0.33333333333333331
aF0
aNaF-1.6666666666666667
aF0
aF0.33333333333333331
aF-1
aF-1
aF-1
aF-1
aF0
aF-1.3333333333333333
aNaF0
aF1
aF-1.6666666666666667
aF0.33333333333333331
aF0.33333333333333331
aF0
aF0
aF0.33333333333333331
aF1.3333333333333333
aNaF0.33333333333333331
aF-0.33333333333333331
aF0
aF-6.666666666666667
aF1
aF28.333333333333371
aF-51
aF-75
aF108.33333333333331
aF7.9999999999999982
aF0
aI-21
aF109.68259618137256
aS'H'
aS'H'
ag5
(S'\x07\xdb\x0b\x13'
tRp608
aS'Everton'
p609
aS'Wolves'
p610
aag305
a(lp611
F-1
aF0
aF-1
aF1
aNaF-2.6666666666666665
aNaF0
aF0
aF1
aF0
aF0
aF0.33333333333333331
aF0
aNaF0
aNaF0
aF1
aF0.33333333333333331
aF0.33333333333333331
aF0
aF0
aF-0.33333333333333331
aNaF1.3333333333333333
aNaF0
aF-0.33333333333333331
aF-1.3333333333333333
aF0
aF0.33333333333333331
aF-165.66666666666669
aF-48.000000000000014
aF-112.00000000000001
aF-23
aF-16
aF0
aI-300
aF44.782088140421742
aS'A'
aS'A'
ag5
(S'\x07\xdb\n\x1d'
tRp612
aS'Everton'
p613
aS'Man United'
p614
aag256
a(lp615
NaF0
aF0
aF-1
aF0
aF2.6666666666666665
aNaF0
aF1
aF1.3333333333333333
aNaF1
aF0
aF1
aF1
aF0
aNaF0.33333333333333331
aF-1
aF-1.3333333333333333
aNaF-0.33333333333333331
aF0
aF0
aF-0.33333333333333331
aF-1.3333333333333333
aNaF-0.33333333333333331
aF0
aF0
aF30.333333333333336
aF11.666666666666666
aF613.33333333333326
aF203.66666666666669
aF20
aF-106.66666666666669
aF0
aF0
aI207
aF287.58493307119272
aS'H'
aS'H'
ag5
(S'\x07\xdb\n\x0f'
tRp616
aS'Chelsea'
p617
aS'Everton'
p618
aa(lp619
NaF0
aF0
aF2.6666666666666665
aF-1
aF-2.6666666666666665
aNaF0
aF0
aF1
aNaF-1
aF0
aF-1.3333333333333333
aF0
aF0
aNaF-0.33333333333333331
aF0
aF-0.33333333333333331
aNaF0.33333333333333331
aF0
aF0
aF0.33333333333333331
aF1.3333333333333333
aNaF0.33333333333333331
aF0
aF0
aF-5.3333333333333339
aF-1.3333333333333333
aF-401.33333333333337
aF-141
aF245.33333333333331
aF-202.66666666666669
aF-19.000000000000004
aF0.33333333333333331
aI-2440
aF287.58493307119272
aS'H'
aS'A'
ag5
(S'\x07\xdb\x05\x16'
tRp620
aS'Everton'
p621
aS'Chelsea'
p622
aa(lp623
F-0.33333333333333331
aF0.16666666666666669
aF-0.33333333333333331
aF-3
aF-0.33333333333333331
aF-0.33333333333333331
aNaF0.66666666666666674
aF0
aF1
aF2
aF0.16666666666666669
aF-0.33333333333333331
aF2
aF0.16666666666666669
aF0.5
aNaF0
aF0
aF0
aF-1.3333333333333333
aF-0.33333333333333331
aF1.6666666666666667
aF0
aF0.16666666666666669
aF-0.83333333333333326
aNaF-0.33333333333333331
aF0
aF-0.33333333333333331
aF5.3333333333333339
aF0.33333333333333331
aF233.33333333333331
aF17.333333333333329
aF-112.00000000000001
aF-124
aF-12.999999999999998
aF0.33333333333333331
aI-752
aF123.28269845526712
aS'H'
aS'H'
ag5
(S'\x07\xdb\x05\x0e'
tRp624
aS'West Brom'
p625
aS'Everton'
p626
aa(lp627
F-1
aF0
aF0.33333333333333331
aNaF0.33333333333333331
aF-2.6666666666666665
aNaF1
aF-1
aF1
aF-0.33333333333333331
aF0
aF-1
aNaF-1
aF0
aNaF-0.33333333333333331
aF0
aF-1.3333333333333333
aF1.3333333333333333
aF0
aF0
aNaF0
aF1.3333333333333333
aNaF0
aF0.33333333333333331
aF0.33333333333333331
aF0
aF-1.3333333333333333
aF-379.66666666666663
aF-90.666666666666657
aF35
aF-20.333333333333314
aF0
aF0
aI-1540
aF50.938602100397503
aS'H'
aS'A'
ag5
(S'\x07\xdb\x05\x07'
tRp628
aS'Everton'
p629
aS'Man City'
p630
aa(lp631
F-0.33333333333333331
aF0
aF0
aF-3
aF-0.33333333333333331
aNaNaF-1.3333333333333333
aF-1
aF-1
aF3
aF-0.33333333333333331
aF0
aF3
aF2.6666666666666665
aNaNaF0.33333333333333331
aF1
aF0
aF-1.3333333333333333
aF1
aF0
aF0
aF-0.33333333333333331
aNaNaF1
aF0
aF0.33333333333333331
aF0
aF-1.6666666666666667
aF0
aF35
aF-55.999999999999993
aF21.666666666666686
aF3.6666666666666661
aF0
aI-1053
aF23.975606104337857
aS'D'
aS'A'
ag5
(S'\x07\xdb\x04\x1e'
tRp632
aS'Wigan'
p633
aS'Everton'
p634
aa(lp635
F-0.33333333333333331
aF1
aF1
aF-1.6666666666666667
aNaF1.6666666666666667
aNaF0
aF0
aF1.6666666666666667
aF3
aF0
aF-0.33333333333333331
aF0
aNaF0
aNaF0
aF0
aF-0.33333333333333331
aF-1.3333333333333333
aF-0.33333333333333331
aF0
aF0.33333333333333331
aNaF-0.33333333333333331
aNaF0
aF0
aF0
aF-4.3333333333333321
aF-4
aF368
aF146.99999999999997
aF173.33333333333331
aF-111.66666666666669
aF-6.666666666666667
aF0
aI2691
aF44.782088140421742
aS'H'
aS'H'
ag5
(S'\x07\xdb\x04\x17'
tRp636
aS'Man United'
p637
aS'Everton'
p638
aag189
a(lp639
F0
aF0
aF0
aF-2.6666666666666665
aF0
aF-1.3333333333333333
aNaF0
aF0
aF1
aF1.3333333333333333
aF0
aF0
aF1.3333333333333333
aF1
aF3
aNaF0.33333333333333331
aF0.33333333333333331
aF-1.3333333333333333
aF-1.3333333333333333
aF0
aF0
aF0
aF-0.33333333333333331
aF-0.33333333333333331
aNaF-0.33333333333333331
aF-1
aF0.33333333333333331
aF0
aF0
aF-351.00000000000006
aF-192
aF-81.666666666666671
aF75
aF0
aF0
aI-657
aF109.68259618137256
aS'A'
aS'H'
ag5
(S'\x07\xdb\x04\t'
tRp640
aS'Wolves'
p641
aS'Everton'
p642
aag28
ag264
a(lp643
F0
aF0.33333333333333331
aF0.33333333333333331
aF3
aF0.33333333333333331
aF0
aNaF1
aF1
aF0
aF-0.33333333333333331
aF0.33333333333333331
aF0
aF-0.33333333333333331
aF0
aF0
aNaF-0.33333333333333331
aF-1
aF-0.33333333333333331
aF1
aF-2.6666666666666665
aF-1
aF-1.3333333333333333
aF-1
aF0
aNaF0
aF0
aF0.33333333333333331
aF4
aF5.333333333333333
aF207
aF90.666666666666657
aF-17.333333333333329
aF24.333333333333314
aF-3.0000000000000009
aF0
aI396
aF129.89172947786224
aS'D'
aS'H'
ag5
(S'\x07\xdb\x03\t'
tRp644
aS'Everton'
p645
aS'Birmingham'
p646
aag313
a(lp647
F0
aF0
aF0
aF2.6666666666666665
aF0.33333333333333331
aF1.3333333333333333
aNaNaF0.33333333333333331
aF0
aF-1.3333333333333333
aF0
aF0
aF-0.33333333333333331
aF-1
aF-0.33333333333333331
aNaNaF-1.6666666666666667
aF-0.33333333333333331
aF1.3333333333333333
aF0
aF0
aF-0.33333333333333331
aF0
aF-1
aNaNaF0
aF0.33333333333333331
aF3.6666666666666661
aF-4
aF111.66666666666669
aF58.666666666666657
aF121.33333333333334
aF-121.66666666666669
aF-3.6666666666666661
aF0
aI-469
aF193.56559314115574
aS'H'
aS'H'
ag5
(S'\x07\xdb\x02\x1a'
tRp648
aS'Everton'
p649
aS'Sunderland'
p650
aag148
ag223
a(lp651
F0
aF1
aF0
aF-2.6666666666666665
aF-0.33333333333333331
aF-1
aNaF0
aF1
aF1.3333333333333333
aF1.3333333333333333
aF-0.33333333333333331
aF1
aF0
aF2.6666666666666665
aF0.33333333333333331
aNaF0.33333333333333331
aF0
aF-0.33333333333333331
aF-1.3333333333333333
aF0
aF-0.33333333333333331
aF1.3333333333333333
aF-0.33333333333333331
aF0
aNaF-1
aF-1
aF-1
aF0
aF2.6666666666666665
aF475
aF255.66666666666666
aF47
aF-440.00000000000006
aF-1.3333333333333333
aF0.33333333333333331
aI1387
aF285.11763486171071
aS'H'
aS'H'
ag5
(S'\x07\xdb\x02\x01'
tRp652
aS'Arsenal'
p653
aS'Everton'
p654
aag486
a(lp655
F0
aNaF0
aF-3
aF0
aF-1
aNaF0
aF0
aF1
aF1.3333333333333333
aNaF1
aF0.33333333333333331
aF1
aF0.33333333333333331
aNaF0.33333333333333331
aF1
aF0
aF-1.3333333333333333
aNaF-0.33333333333333331
aF1.3333333333333333
aF-0.33333333333333331
aF0
aNaF-1
aF-0.33333333333333331
aF-0.33333333333333331
aF2.333333333333333
aF-1
aF-229.33333333333337
aF-81.666666666666657
aF11
aF-50.666666666666686
aF10.666666666666666
aF0
aI0
aF0.98015325743948067
aS'D'
aS'H'
ag5
(S'\x07\xdb\x01\x10'
tRp656
aS'Liverpool'
p657
aS'Everton'
p658
aag436
ag379
ag490
a(lp659
F2.6666666666666665
aF0
aF0
aNaF-0.33333333333333331
aF0
aNaF0
aF1.3333333333333333
aF0.33333333333333331
aF0
aF-1.3333333333333333
aF1
aNaF1
aF0
aNaF0.33333333333333331
aF-0.33333333333333331
aF0
aF-1.3333333333333333
aF1.3333333333333333
aF-1
aNaF0
aF0
aNaF-1
aF-1
aF-1.6666666666666667
aF7.0000000000000009
aF1
aF-112
aF26.666666666666671
aF28.999999999999993
aF0
aF5
aF0
aI700
aF50.938602100397503
aS'A'
aS'H'
ag5
(S'\x07\xda\x0c\x14'
tRp660
aS'Man City'
p661
aS'Everton'
p662
aa(lp663
F0
aF0
aF-0.33333333333333331
aF2
aF0.33333333333333331
aNaNaF0
aF0
aF0
aF-1.3333333333333333
aF1
aF-1
aF-1.3333333333333333
aF-2.6666666666666665
aNaNaF0
aF-1
aF-1.6666666666666667
aF1.3333333333333333
aF-0.33333333333333331
aF1.3333333333333333
aF-0.33333333333333331
aF0.33333333333333331
aNaNaF0
aF1
aF0.33333333333333331
aF2.333333333333333
aF0
aF73
aF-41.000000000000014
aF0
aF-82.666666666666686
aF13.333333333333332
aF-1
aI64
aF23.975606104337857
aS'D'
aS'H'
ag5
(S'\x07\xda\x0c\x0b'
tRp664
aS'Everton'
p665
aS'Wigan'
p666
aa(lp667
NaF1
aF0.5
aF-2
aF1.6666666666666667
aF-0.66666666666666674
aNaF1
aF0
aF1.3333333333333333
aNaF-1
aF0.16666666666666669
aF3
aF-0.33333333333333331
aF0.33333333333333331
aNaF0.33333333333333331
aF0
aF0.33333333333333331
aNaF0
aF-1.3333333333333333
aF0
aF-0.33333333333333331
aF0
aNaF-1.3333333333333333
aF0
aF-3
aF-5
aF-1
aF576.33333333333337
aF160
aF168
aF-201.66666666666666
aF-7.0000000000000009
aF-0.33333333333333331
aI585
aF287.58493307119272
aS'D'
aS'H'
ag5
(S'\x07\xda\x0c\x04'
tRp668
aS'Chelsea'
p669
aS'Everton'
p670
aa(lp671
F0.5
aF0.33333333333333331
aF0
aF2
aF0.33333333333333331
aF2
aNaF-0.66666666666666674
aF0
aF0.33333333333333331
aF-1
aF0.33333333333333326
aF0.33333333333333331
aF-1
aF0.33333333333333331
aF-1
aNaF0
aF-1
aF-1
aF0.5
aF0
aF0.33333333333333326
aF0
aF-0.66666666666666674
aF0
aNaF1.3333333333333333
aF1
aF0
aF4
aF0
aF176
aF109.66666666666666
aF127.99999999999997
aF38.666666666666686
aF5
aF0.33333333333333331
aI0
aF123.28269845526712
aS'A'
aS'H'
ag5
(S'\x07\xda\x0b\x1b'
tRp672
aS'Everton'
p673
aS'West Brom'
p674
aa(lp675
F-0.16666666666666669
aF0
aF0.33333333333333331
aF-1.6666666666666667
aF-0.33333333333333331
aF-2
aNaNaF1.3333333333333333
aF1
aF1.3333333333333333
aF-1
aF0
aF0.33333333333333331
aF0
aF0.33333333333333331
aNaNaF-0.33333333333333331
aF0
aF-0.5
aF0.33333333333333331
aF-1
aF0.33333333333333331
aF1
aF1.3333333333333333
aNaNaF-1
aF-1
aF6.666666666666667
aF1
aF-522.66666666666663
aF-229.66666666666666
aF-272.33333333333331
aF73
aF0
aF-0.33333333333333331
aI136
aF193.56559314115574
aS'D'
aS'H'
ag5
(S'\x07\xda\x0b\x16'
tRp676
aS'Sunderland'
p677
aS'Everton'
p678
aa(lp679
F0.5
aF-1
aF-0.5
aF1.6666666666666667
aF0.33333333333333331
aF1.5
aNaF0.16666666666666669
aF-1
aF0
aF-3
aF1.3333333333333333
aF-0.16666666666666669
aF-0.33333333333333331
aF-1.6666666666666667
aF-0.5
aNaF-0.33333333333333331
aF-0.33333333333333331
aF-0.33333333333333331
aF0.5
aF-0.33333333333333331
aF1.3333333333333333
aF-0.33333333333333331
aF0.33333333333333331
aF0
aNaF0.16666666666666669
aF1.3333333333333333
aF0.33333333333333331
aF2.333333333333333
aF0
aF623.99999999999989
aF151.66666666666669
aF114.33333333333331
aF-213.33333333333337
aF-14.999999999999998
aF0
aI-304
aF285.11763486171071
aS'A'
aS'A'
ag5
(S'\x07\xda\x0b\x0e'
tRp680
aS'Everton'
p681
aS'Arsenal'
p682
aag152
ag231
ag383
ag444
a(lp683
F0.5
aNaF-0.5
aF2
aF0
aF1.5
aNaF0.16666666666666669
aF0.33333333333333331
aF0.33333333333333331
aF-2
aNaF0
aF-0.33333333333333331
aF-1
aF-0.5
aNaF-0.33333333333333331
aF-1
aF0
aF0.5
aNaF0.5
aF-1.3333333333333333
aF0.33333333333333331
aF0
aNaF0.16666666666666669
aF0
aF-1
aF-7.0000000000000009
aF-0.33333333333333331
aF-165.66666666666669
aF0
aF29.333333333333336
aF75
aF-9
aF0
aI0
aF0.98015325743948067
aS'H'
aS'H'
ag5
(S'\x07\xda\n\x11'
tRp684
aS'Everton'
p685
aS'Liverpool'
p686
aa(lp687
F-0.5
aF0
aF0
aF-2
aF-0.33333333333333331
aF-0.66666666666666674
aNaF-0.16666666666666669
aF0
aF0
aF0.5
aF-2
aF0
aF0.5
aF0.16666666666666669
aF0
aNaF0.33333333333333331
aF0
aF0
aF0
aF3
aF0
aF0.5
aF0.16666666666666669
aF0.33333333333333331
aNaF-0.16666666666666669
aF0
aF0
aF-2.6666666666666665
aF0
aF-325.00000000000006
aF-158.66666666666666
aF-58.666666666666671
aF-245.66666666666669
aF0
aF0.33333333333333331
aI40
aF129.89172947786224
aS'A'
aS'A'
ag5
(S'\x07\xda\n\x02'
tRp688
aS'Birmingham'
p689
aS'Everton'
p690
aa(lp691
F0.5
aF-0.5
aF0
aF2
aF0.5
aF1.5
aNaF0.5
aF1
aF1.3333333333333333
aF-2
aF1.5
aF-1.5
aF-2
aF-1.5
aF0
aNaF0
aF-0.33333333333333331
aF-0.33333333333333331
aF0.5
aF0
aF0.5
aF0
aF0
aF-0.5
aNaF-1.5
aF0
aF-1
aF-3.6666666666666661
aF-2.6666666666666665
aF-104.00000000000006
aF-64
aF-35
aF-18.333333333333314
aF1
aF0
aI2580
aF321.21203083564887
aS'H'
aS'H'
ag5
(S'\x07\xda\x05\t'
tRp692
aS'Everton'
p693
aS'Portsmouth'
p694
aag395
ag268
ag197
ag40
ag494
a(lp695
F-0.5
aF0
aF2
aF-2
aF-0.5
aF-1.5
aNaF-0.5
aF0
aF0
aF2
aF-1.5
aF-0.5
aF2
aF1.5
aF0.5
aNaF1
aF0
aF1
aF-0.5
aF0.5
aF-0.5
aF0
aF0
aF0
aNaF-0.5
aF0
aF-0.33333333333333331
aF4.3333333333333321
aF2.333333333333333
aF-440.00000000000006
aF-239.99999999999997
aF20
aF720
aF16
aF0
aI-1343
aF109.68259618137256
aS'D'
aS'A'
ag5
(S'\x07\xda\x03\x1b'
tRp696
aS'Wolves'
p697
aS'Everton'
p698
aa(lp699
F1.5
aF0
aF0
aNaF-0.5
aF-2
aNaF0
aF0
aF1.3333333333333333
aF0
aF-2
aF0.5
aNaF0.5
aF0
aNaF0
aF0
aF-1.3333333333333333
aF-0.5
aF2
aF-0.5
aNaF0
aF1
aNaF0
aF0
aF0
aF-10.666666666666668
aF-2.333333333333333
aF-392.00000000000006
aF-149.33333333333331
aF-24.999999999999993
aF-88
aF7.0000000000000009
aF0
aI784
aF50.938602100397503
aS'A'
aS'H'
ag5
(S'\x07\xda\x03\x18'
tRp700
aS'Man City'
p701
aS'Everton'
p702
aag160
a(lp703
F-0.5
aF0
aF0
aF-1
aF-0.5
aF0
aNaF0.5
aF0
aF1
aF0.5
aF-2
aF0
aF0
aF0
aF0
aNaF0
aF0
aF-1.3333333333333333
aF0
aF1
aF0
aF1
aF0.5
aF0
aNaF-0.5
aF0
aF0.33333333333333331
aF-21.666666666666668
aF2.333333333333333
aF-336.00000000000006
aF-146.66666666666669
aF-69.333333333333329
aF87
aF-21.666666666666668
aF0
aI168
aF129.89172947786224
aS'D'
aS'A'
ag5
(S'\x07\xda\x03\r'
tRp704
aS'Birmingham'
p705
aS'Everton'
p706
aa(lp707
F0.5
aF0
aF0
aF0.5
aF0.5
aF1
aNaF0.5
aF1
aF3
aF-0.5
aF1
aF0
aF0
aF-1.5
aF0
aNaF-1
aF-1
aF-3
aF0
aF0
aF0
aF-0.5
aF0
aF0
aNaF0.5
aF0
aF0
aF10.666666666666666
aF1
aF179.99999999999997
aF121
aF60
aF109.33333333333337
aF21.333333333333336
aF-1.3333333333333333
aI868
aF174.82251058010502
aS'H'
aS'H'
ag5
(S'\x07\xda\x03\x07'
tRp708
aS'Everton'
p709
aS'Hull'
p710
aag452
a(lp711
F0.5
aF0
aF-1
aF0
aNaF0
aNaF0.5
aF0
aF2.6666666666666665
aF-1
aF1
aF0
aF0
aNaF0
aNaF0
aF0.33333333333333331
aF0
aF0.5
aF0
aF1
aF0
aNaF0
aNaF-0.5
aF-0.33333333333333331
aF-1.3333333333333333
aF-24
aF-8
aF-469
aF-45.333333333333329
aF-58.666666666666657
aF385.00000000000006
aF10.666666666666666
aF0
aI-2024
aF44.782088140421742
aS'H'
aS'A'
ag5
(S'\x07\xda\x02\x14'
tRp712
aS'Everton'
p713
aS'Man United'
p714
aa(lp715
NaF-1
aF-1
aF1
aF-1
aF2
aNaF-1.5
aF0
aF2.6666666666666665
aNaF2
aF0
aF-1
aF1
aF-1
aNaF0
aF0.33333333333333331
aF0
aNaF0
aF1
aF0
aF0
aF0
aNaF0.5
aF-0.33333333333333331
aF-1.3333333333333333
aF-5.3333333333333339
aF-4
aF-462.33333333333337
aF-80.000000000000014
aF-39
aF208.00000000000006
aF-3.6666666666666661
aF0.33333333333333331
aI-2340
aF287.58493307119272
aS'H'
aS'A'
ag5
(S'\x07\xda\x02\n'
tRp716
aS'Everton'
p717
aS'Chelsea'
p718
aa(lp719
F0
aNaF0.5
aF-1
aF1
aF-1
aNaF-0.5
aF-1.6666666666666667
aF2.6666666666666665
aF1
aNaF0.5
aF0
aF-1
aF0
aNaF1
aF0
aF0
aF-1
aNaF-1
aF1
aF0
aF0
aNaF-0.5
aF0.33333333333333331
aF-1.3333333333333333
aF-3.0000000000000009
aF-4
aF-44
aF-68.000000000000014
aF-13.666666666666657
aF0
aF4
aF0
aI657
aF0.98015325743948067
aS'H'
aS'H'
ag5
(S'\x07\xda\x02\x06'
tRp720
aS'Liverpool'
p721
aS'Everton'
p722
aa(lp723
F1
aF0
aF0
aF-1
aF0
aNaNaF0.5
aF-1
aF0.33333333333333331
aF0
aF0
aF1
aF0
aF1
aNaNaF0
aF1.3333333333333333
aF0.33333333333333331
aF-1
aF0
aF-1
aF1
aF0
aNaNaF-0.5
aF-0.33333333333333331
aF-2.6666666666666665
aF-9
aF-8.3333333333333339
aF282.33333333333337
aF153.33333333333331
aF-113.33333333333334
aF125.00000000000006
aF8
aF0.33333333333333331
aI-357
aF23.975606104337857
aS'A'
aS'A'
ag5
(S'\x07\xda\x01\x1e'
tRp724
aS'Wigan'
p725
aS'Everton'
p726
aa(lp727
F0
aF-1
aF0
aF1
aF0
aF1
aNaNaF1.3333333333333333
aF1.3333333333333333
aF-2
aF1
aF-1
aF-1
aF1
aF-1
aNaNaF-0.33333333333333331
aF-1.3333333333333333
aF1
aF0
aF1
aF0
aF-1
aF0
aNaNaF-1
aF0
aF3.6666666666666661
aF2.6666666666666665
aF405.33333333333337
aF146.66666666666669
aF253.33333333333331
aF-395.00000000000006
aF-10.666666666666666
aF0
aI147
aF193.56559314115574
aS'H'
aS'H'
ag5
(S'\x07\xda\x01\x1b'
tRp728
aS'Everton'
p729
aS'Sunderland'
p730
aa(lp731
F-1
aF0
aF0
aNaF0
aF1
aNaF-1
aF-2.6666666666666665
aF0
aF0
aF1
aF-1
aNaF0
aF0
aNaF0
aF0
aF-0.33333333333333331
aF1
aF-1
aF1
aNaF0
aF-1
aNaF1
aF1.3333333333333333
aF1
aF-18.666666666666664
aF-8
aF243
aF112.00000000000001
aF234.66666666666669
aF85.333333333333314
aF5.3333333333333339
aF0
aI-915
aF50.938602100397503
aS'H'
aS'A'
ag5
(S'\x07\xda\x01\x10'
tRp732
aS'Everton'
p733
aS'Man City'
p734
aa(lp735
F0
aF1
aF1
aF0
aF0
aF0
aNaF0
aF2.6666666666666665
aF3
aF1
aF-1
aF0
aF1
aF0
aF0
aNaF1
aF0
aF-0.33333333333333331
aF-1
aF0
aF-1
aF0
aF0
aF0
aNaF-1
aF-1.3333333333333333
aF-1.3333333333333333
aF28.000000000000004
aF2.6666666666666665
aF-141.33333333333337
aF77.333333333333314
aF0
aF-94.999999999999972
aF-4
aF0
aI1197
aF285.11763486171071
aS'D'
aS'H'
ag5
(S'\x07\xda\x01\t'
tRp736
aS'Arsenal'
p737
aS'Everton'
p738
aag214
a(lp739
F0
aF1
aF0
aF0
aF0
aF-1
aNaNaF0
aF0.33333333333333331
aF1
aF-1
aF1
aF1
aF-1
aF1
aNaNaF1.3333333333333333
aF-1
aF-1
aF0
aF-1
aF0
aF1
aF0
aNaNaF-2.6666666666666665
aF0
aF-6.666666666666667
aF0
aF-164.00000000000006
aF-13.000000000000014
aF112.00000000000001
aF0
aF12.999999999999998
aF1.3333333333333333
aI117
aF193.56559314115574
aS'D'
aS'H'
ag5
(S'\x07\xd9\x0c\x1a'
tRp740
aS'Sunderland'
p741
aS'Everton'
p742
aa(lp743
F0
aF0
aF0
aF0
aF0
aF0
aNaF-1
aF-3
aF-1.3333333333333333
aF0
aF1
aF-1
aF0
aF0
aF0
aNaF0
aF0.33333333333333331
aF0.33333333333333331
aF1
aF-1
aF1
aF-1
aF0
aF0
aNaF0
aF1.3333333333333333
aF1
aF-3.6666666666666661
aF1
aF-50.666666666666686
aF-45
aF-99
aF355.00000000000006
aF3.6666666666666661
aF0
aI-440
aF129.89172947786224
aS'D'
aS'H'
ag5
(S'\x07\xd9\x0c\x14'
tRp744
aS'Everton'
p745
aS'Birmingham'
p746
aa(lp747
NaF1
aF1
aF0
aF1
aF-1
aNaF1
aF1.3333333333333333
aF2.6666666666666665
aNaF-1
aF0
aF1
aF-1
aF1
aNaF0
aF-1
aF-1.3333333333333333
aNaF0
aF-1
aF0
aF0
aF0
aNaF0
aF-0.33333333333333331
aF0
aF16
aF12
aF192.00000000000006
aF112.00000000000001
aF24.999999999999993
aF-437.33333333333337
aF-5.6666666666666679
aF0
aI1040
aF287.58493307119272
aS'D'
aS'H'
ag5
(S'\x07\xd9\x0c\x0c'
tRp748
aS'Chelsea'
p749
aS'Everton'
p750
aag456
a(lp751
F0
aNaF0
aF0
aF-1
aF1
aNaF0
aF0.33333333333333331
aF0
aF-1
aNaF-1
aF0
aF1
aF0
aNaF-1
aF1
aF-3
aF0
aNaF0
aF-1
aF0
aF0
aNaF0
aF-1.3333333333333333
aF3
aF-3.0000000000000009
aF-1
aF-408
aF-111.00000000000001
aF-85.333333333333343
aF456.00000000000006
aF37.333333333333336
aF-1.3333333333333333
aI-175
aF0.98015325743948067
aS'A'
aS'A'
ag5
(S'\x07\xd9\x0b\x1d'
tRp752
aS'Everton'
p753
aS'Liverpool'
p754
aa(lp755
F0
aF0
aF0
aF0
aF0
aF0
aNaF0
aF0
aF0
aF1
aF1
aF1
aF0
aF-1
aF0
aNaF1
aF0
aF-1.3333333333333333
aF0
aF0
aF0
aF0
aF0
aF0
aNaF0
aF0
aF1.3333333333333333
aF5.3333333333333339
aF1.6666666666666667
aF151.66666666666669
aF86.333333333333343
aF-7
aF-121.66666666666669
aF-12.999999999999998
aF1
aI-81
aF174.82251058010502
aS'H'
aS'A'
ag5
(S'\x07\xd9\x0b\x19'
tRp756
aS'Hull'
p757
aS'Everton'
p758
aa(lp759
F0
aF0
aF1
aF1
aNaF0
aNaF0
aF0
aF0
aF1
aF1
aF0
aF0
aNaF0
aNaF0
aF1
aF-0.33333333333333331
aF0
aF0
aF0
aF0
aNaF0
aNaF1
aF-0.33333333333333331
aF0.33333333333333331
aF-7.0000000000000009
aF-3
aF359.66666666666669
aF64
aF34.666666666666664
aF-336
aF-4.3333333333333321
aF0
aI400
aF44.782088140421742
aS'H'
aS'H'
ag5
(S'\x07\xd9\x0b\x15'
tRp760
aS'Man United'
p761
aS'Everton'
p762
aag506
ag52
ag164
a(lp763
F0
aF0
aF0
aF0
aF0
aF0
aNaF0
aF1
aF0.5
aF0
aF0
aF0
aF-1
aF0
aF0
aNaF-1
aF-1.3333333333333333
aF-2
aF0
aF0
aF0
aF0
aF0
aF0
aNaF0
aF0.33333333333333331
aF0.5
aF3.0000000000000009
aF1
aF490.66666666666669
aF298.66666666666663
aF56.000000000000014
aF93.333333333333314
aF0
aF0
aI51
aF109.68259618137256
aS'D'
aS'H'
ag5
(S'\x07\xd9\n\x11'
tRp764
aS'Everton'
p765
aS'Wolves'
p766
aag399
asS'Liverpool'
p767
(lp768
(lp769
F0
aNaF1.3333333333333333
aF0.33333333333333331
aNaF1
aF-1
aF2.6666666666666665
aF1.6666666666666667
aF1.6666666666666667
aF0
aNaF-1
aF1
aNaF0
aF0.33333333333333331
aF-0.33333333333333331
aF-0.33333333333333331
aF-0.33333333333333331
aF0
aNaF-0.33333333333333331
aF-1.3333333333333333
aNaF-0.33333333333333331
aF0
aF-0.33333333333333331
aF0
aF0
aF17.000000000000004
aF-6.666666666666667
aF-272
aF0
aF-129
aF78.333333333333343
aF7.0000000000000009
aF0
aI1743
aF44.466125065948304
aS'H'
aS'H'
ag5
(S'\x07\xdd\x01\r'
tRp770
aS'Man United'
p771
ag767
aag551
ag579
a(lp772
F-1.6666666666666667
aNaF1.3333333333333333
aF0
aNaF3
aF1
aF1
aF1
aF1
aF0
aNaF-1.3333333333333333
aF0
aNaF0
aF-0.33333333333333331
aF0
aF-0.33333333333333331
aF-1
aF0.33333333333333331
aNaF0
aF0
aNaF-3
aF0
aF-1
aF0
aF0
aF11
aF1
aF-415.00000000000006
aF-179.99999999999997
aF48.000000000000014
aF18.333333333333314
aF-11
aF0
aI1504
aF44.466125065948304
aS'H'
aS'H'
ag5
(S'\x07\xdc\x02\x0b'
tRp773
aS'Man United'
p774
aS'Liverpool'
p775
aa(lp776
F0
aNaF-1.3333333333333333
aF-1
aNaF-3
aF0
aF-1
aF0
aF1
aF0
aNaF3
aF0.33333333333333331
aNaF0.33333333333333331
aF0
aF0
aF0.33333333333333331
aF0.33333333333333331
aF0
aNaF-0.33333333333333331
aF0
aNaF1.3333333333333333
aF0
aF1
aF-0.33333333333333331
aF-1.3333333333333333
aF-6.666666666666667
aF-4
aF-202.66666666666669
aF-112.00000000000001
aF-65.000000000000014
aF186.66666666666666
aF18.333333333333332
aF1.3333333333333333
aI-192
aF44.466125065948304
aS'D'
aS'A'
ag5
(S'\x07\xdb\n\x0f'
tRp777
aS'Liverpool'
p778
aS'Man United'
p779
aa(lp780
F1.3333333333333333
aNaF-1
aF-1.3333333333333333
aNaF-3
aF0
aF-1
aF-1
aF1
aF-2.6666666666666665
aNaF1.3333333333333333
aF0.33333333333333331
aNaF0.33333333333333331
aF0
aF0.33333333333333331
aF0
aF-1.3333333333333333
aF0
aNaF-0.33333333333333331
aF1
aNaF1.3333333333333333
aF0
aF0
aF0.33333333333333331
aF0.33333333333333331
aF-13.333333333333332
aF-2.6666666666666665
aF-115
aF-65.000000000000014
aF87
aF-272.00000000000006
aF-5.3333333333333339
aF-0.33333333333333331
aI-2079
aF44.466125065948304
aS'H'
aS'A'
ag5
(S'\x07\xdb\x03\x06'
tRp781
aS'Liverpool'
p782
aS'Man United'
p783
aag655
ag683
a(lp784
F0
aNaF0.5
aF1
aNaF1.5
aF-1.5
aF0
aF1.6666666666666667
aF3
aF0
aNaF-0.5
aF0
aNaF-0.5
aF0.5
aF-1
aF-0.33333333333333331
aF-1.3333333333333333
aF0
aNaF0
aF-2
aNaF0
aF0
aF1
aF0
aF-0.33333333333333331
aF4.3333333333333321
aF-8
aF494.66666666666663
aF238.33333333333331
aF26.666666666666671
aF-176.99999999999997
aF-10.666666666666666
aF0
aI1755
aF44.466125065948304
aS'H'
aS'H'
ag5
(S'\x07\xda\x03\x15'
tRp785
aS'Man United'
p786
aS'Liverpool'
p787
aag719
ag751
a(lp788
F0
aNaF-1
aF-1
aNaF-1
aF0
aF0
aF-1
aF0
aF1
aNaF1
aF0
aNaF0
aF0
aF1
aF1.3333333333333333
aF0
aF0
aNaF0
aF0
aNaF0
aF0
aF-1
aF-0.33333333333333331
aF0
aF0
aF0
aF184
aF0
aF-124
aF260.00000000000006
aF0
aF0
aI-259
aF44.466125065948304
aS'H'
aS'A'
ag5
(S'\x07\xd9\n\x19'
tRp789
aS'Liverpool'
p790
aS'Man United'
p791
aasg561
(lp792
g559
a(lp793
F-1
aF-0.33333333333333331
aF-1.3333333333333333
aF0
aNaF-2.6666666666666665
aF-1.3333333333333333
aF1.6666666666666667
aF-3
aF-1.3333333333333333
aF1.3333333333333333
aF2.6666666666666665
aF0.33333333333333331
aF1
aNaF1.3333333333333333
aF1.3333333333333333
aF0
aF1.3333333333333333
aF3
aF-0.33333333333333331
aF-0.33333333333333331
aF1
aF-0.33333333333333331
aNaF0
aF0
aF-0.33333333333333331
aF0.33333333333333331
aF-0.33333333333333331
aF-14.999999999999998
aF-3
aF-176
aF-91.000000000000014
aF-18.666666666666664
aF34.666666666666657
aF0
aF0
aI-4005
aF97.639104184963045
aS'A'
aS'A'
ag5
(S'\x07\xdc\x03\x12'
tRp794
aS'Wolves'
p795
aS'Man United'
p796
aa(lp797
F1
aF0
aF1.3333333333333333
aF0
aNaF2.6666666666666665
aF1.3333333333333333
aF-1.6666666666666667
aF1
aF0.33333333333333331
aF-1
aF-1
aF-1.3333333333333333
aF-1
aNaF-1.3333333333333333
aF-1.3333333333333333
aF0
aF-1.3333333333333333
aF-2.6666666666666665
aF0
aF0.33333333333333331
aF0
aF0.33333333333333331
aNaF0
aF0
aF0.33333333333333331
aF0.33333333333333331
aF0.33333333333333331
aF0
aF1
aF511
aF152
aF67.666666666666657
aF-21.666666666666686
aF-10.666666666666666
aF0
aI893
aF97.639104184963045
aS'H'
aS'H'
ag5
(S'\x07\xdb\x0c\n'
tRp798
aS'Man United'
p799
aS'Wolves'
p800
aag607
ag639
a(lp801
F0.33333333333333331
aF-1
aF0
aF-1
aNaF-3
aF-0.33333333333333331
aF0
aF-3
aF-1
aF-0.66666666666666674
aF0
aF0.33333333333333331
aF1.3333333333333333
aNaF3
aF-0.33333333333333331
aF0.33333333333333331
aF3
aF1.3333333333333333
aF0
aF0.33333333333333331
aF-0.33333333333333331
aF-0.33333333333333331
aNaF0
aF2.6666666666666665
aF-0.33333333333333331
aF0
aF-0.33333333333333331
aF-37.333333333333336
aF-8
aF-780
aF-277.66666666666669
aF-76.000000000000014
aF-49
aF1.6666666666666667
aF0
aI-2475
aF97.639104184963045
aS'H'
aS'A'
ag5
(S'\x07\xdb\x02\x05'
tRp802
aS'Wolves'
p803
aS'Man United'
p804
aa(lp805
F0
aF1.3333333333333333
aF1.6666666666666667
aF1.6666666666666667
aNaF1.6666666666666667
aF0.33333333333333331
aF-0.16666666666666669
aF1
aF1.3333333333333333
aF-1
aF-0.16666666666666669
aF-0.33333333333333331
aF-1.3333333333333333
aNaF-1.3333333333333333
aF0.33333333333333331
aF-0.5
aF-0.33333333333333331
aF-3
aF0
aF-0.5
aF0
aF0
aNaF0
aF-2.6666666666666665
aF1.3333333333333333
aF0
aF0.33333333333333331
aF9
aF4
aF385.00000000000006
aF58.666666666666657
aF-113.66666666666666
aF231.99999999999997
aF0
aF0
aI319
aF97.639104184963045
aS'H'
aS'H'
ag5
(S'\x07\xda\x0b\x06'
tRp806
aS'Man United'
p807
aS'Wolves'
p808
aag695
a(lp809
F0
aF0
aF1
aF-1
aNaF-1.5
aF-0.5
aF0
aF0
aF0
aF1
aF-0.5
aF0
aF2
aNaF0.5
aF-0.5
aF1
aF1
aF0
aF0
aF0.5
aF0
aF0
aNaF0
aF1
aF-1
aF-0.33333333333333331
aF0
aF-8
aF-2.6666666666666665
aF-199.99999999999997
aF-58.333333333333343
aF-112.00000000000001
aF63
aF4
aF-0.33333333333333331
aI-3024
aF97.639104184963045
aS'A'
aS'A'
ag5
(S'\x07\xda\x03\x06'
tRp810
aS'Wolves'
p811
aS'Man United'
p812
aa(lp813
F0
aF0
aF0
aF1
aNaF0
aF1
aF0
aF0
aF1
aF0
aF1
aF0
aF-1
aNaF0
aF0
aF-1
aF0
aF0
aF0
aF0
aF0
aF0
aNaF0
aF-1
aF1
aF0
aF-0.33333333333333331
aF18.333333333333332
aF0
aF529
aF176
aF47
aF-132
aF-18.666666666666664
aF0
aI900
aF97.639104184963045
aS'H'
aS'H'
ag5
(S'\x07\xd9\x0c\x0f'
tRp814
aS'Man United'
p815
aS'Wolves'
p816
aag763
asg534
(lp817
g531
a(lp818
NaF-1.3333333333333333
aF-1
aF1
aNaF0
aF0
aF0
aF1.6666666666666667
aF0
aNaF3
aF-0.33333333333333331
aF-1
aNaF-0.33333333333333331
aF1
aF0
aF-0.33333333333333331
aF0
aNaF-0.33333333333333331
aF1.3333333333333333
aF0
aNaF0.33333333333333331
aF-0.33333333333333331
aF0
aF0
aF0
aF6.3333333333333357
aF3.0000000000000009
aF27
aF0
aF12.333333333333329
aF35.999999999999972
aF0
aF0
aI160
aF262.24830639062515
aS'A'
aS'H'
ag5
(S'\x07\xdc\n\x1c'
tRp819
aS'Chelsea'
p820
aS'Man United'
p821
aag583
a(lp822
NaF-0.33333333333333331
aF-1
aF1
aNaF-1.6666666666666667
aF-1
aF1.6666666666666667
aF-2.6666666666666665
aF-1
aNaF2.6666666666666665
aF0
aF0
aNaF0
aF0.33333333333333331
aF0
aF0
aF0
aNaF-0.33333333333333331
aF1
aF-0.33333333333333331
aNaF0.33333333333333331
aF0
aF-0.33333333333333331
aF1.3333333333333333
aF0.33333333333333331
aF-14.999999999999998
aF-2.6666666666666665
aF693
aF133.33333333333331
aF91.666666666666657
aF179.99999999999997
aF9
aF0.33333333333333331
aI-1152
aF262.24830639062515
aS'D'
aS'H'
ag5
(S'\x07\xdc\x02\x05'
tRp823
aS'Chelsea'
p824
aS'Man United'
p825
aag615
ag619
a(lp826
NaF1
aF1
aF1
aNaF0
aF0.33333333333333331
aF0
aF-2.6666666666666665
aF1.6666666666666667
aNaF-1
aF-0.33333333333333331
aF-1.3333333333333333
aNaF0
aF0
aF-0.33333333333333331
aF0.33333333333333331
aF0
aNaF0
aF0
aF0.33333333333333331
aNaF0
aF-1
aF0.33333333333333331
aF0.33333333333333331
aF-0.33333333333333331
aF-21
aF-5.333333333333333
aF33
aF-18.333333333333314
aF117.33333333333334
aF0
aF6.666666666666667
aF0
aI429
aF262.24830639062515
aS'H'
aS'H'
ag5
(S'\x07\xdb\x05\x08'
tRp827
aS'Man United'
p828
aS'Chelsea'
p829
aa(lp830
NaF-1
aF-1
aF-1.3333333333333333
aNaF-1.6666666666666667
aF-0.33333333333333331
aF0
aF-1
aF-1
aNaF1
aF0.33333333333333331
aF3
aNaF0.33333333333333331
aF0
aF0.33333333333333331
aF0
aF0
aNaF0
aF0
aF-0.33333333333333331
aNaF0
aF1
aF-0.33333333333333331
aF0.33333333333333331
aF0.33333333333333331
aF-11
aF-1.6666666666666667
aF614.33333333333326
aF81.666666666666657
aF20
aF-115
aF-3.0000000000000009
aF0
aI-1575
aF262.24830639062515
aS'H'
aS'H'
ag5
(S'\x07\xdb\x03\x01'
tRp831
aS'Chelsea'
p832
aS'Man United'
p833
aag667
a(lp834
NaF-0.5
aF0
aF1
aNaF2
aF0.5
aF-2
aF1.6666666666666667
aF1.6666666666666667
aNaF0.5
aF0
aF-2
aNaF-1
aF0
aF0
aF0
aF0
aNaF0
aF0
aF0
aNaF0
aF-0.5
aF1
aF-0.33333333333333331
aF-0.33333333333333331
aF-29.333333333333336
aF-4
aF308.99999999999989
aF41.333333333333314
aF-100.33333333333334
aF0
aF-9
aF0
aI143
aF262.24830639062515
aS'A'
aS'H'
ag5
(S'\x07\xda\x04\x03'
tRp835
aS'Man United'
p836
aS'Chelsea'
p837
aag715
ag747
a(lp838
NaF1
aF0
aF-1
aNaF-1
aF0
aF1
aF0
aF1.6666666666666667
aNaF-1
aF0
aF0
aNaF1
aF0
aF0
aF0
aF-0.33333333333333331
aNaF0
aF0
aF0
aNaF0
aF0
aF-1
aF0
aF0
aF28.000000000000004
aF1.6666666666666667
aF1292
aF498.66666666666663
aF96
aF-170.66666666666669
aF-1.6666666666666667
aF-0.33333333333333331
aI104
aF262.24830639062515
aS'H'
aS'H'
ag5
(S'\x07\xd9\x0b\x08'
tRp839
aS'Chelsea'
p840
aS'Man United'
p841
aasg694
(lp842
g691
a(lp843
F0
aF-1
aF1
aF1
aNaF1
aF1
aF0
aF3
aF3
aF0
aF1
aF-1
aF-2
aNaF0
aF-1
aF0
aF-1.3333333333333333
aF-3
aF0
aF0
aF0
aF0
aNaF0
aF0
aF0
aF-0.33333333333333331
aF0
aF33
aF3
aF768
aF186.99999999999997
aF84
aF-288
aF-15.999999999999998
aF0
aI2584
aF308.09998599581388
aS'H'
aS'H'
ag5
(S'\x07\xda\x02\x06'
tRp844
aS'Man United'
p845
aS'Portsmouth'
p846
aa(lp847
F0
aF0
aF-1
aF-1
aNaF0
aF-1
aF0
aF-1
aF0
aF-1
aF-1
aF1
aF1
aNaF0
aF1
aF0
aF1
aF0
aF0
aF0
aF0
aF0
aNaF0
aF0
aF-1
aF0
aF0
aF0
aF2.6666666666666665
aF-514.99999999999989
aF-194.33333333333331
aF-157.66666666666669
aF307.66666666666669
aF0
aF0
aI-735
aF308.09998599581388
aS'A'
aS'A'
ag5
(S'\x07\xd9\x0b\x1c'
tRp848
aS'Portsmouth'
p849
aS'Man United'
p850
aasS'Man City'
p851
(lp852
(lp853
F0
aF2.6666666666666665
aF-2.6666666666666665
aNaNaF-1.6666666666666667
aF0.33333333333333331
aF2.6666666666666665
aF1.6666666666666667
aF2.6666666666666665
aF0
aF0
aF0.33333333333333331
aNaNaF0.33333333333333331
aF-1
aF-0.33333333333333331
aF-0.33333333333333331
aF-1.3333333333333333
aF0
aF-1.3333333333333333
aF0.33333333333333331
aNaNaF0
aF0
aF-0.33333333333333331
aF0
aF0
aF3.6666666666666661
aF0
aF-511.99999999999989
aF-193.33333333333331
aF-25.333333333333343
aF-179.66666666666669
aF-2.6666666666666665
aF0
aI2085
aF6.4091066836603519
aS'A'
aS'H'
ag5
(S'\x07\xdd\x04\x08'
tRp854
aS'Man United'
p855
ag851
aag519
a(lp856
F-1
aF-1
aF1.6666666666666667
aNaNaF1.6666666666666667
aF0
aF-2.6666666666666665
aF-2.6666666666666665
aF0
aF0.33333333333333331
aF0
aF-0.33333333333333331
aNaNaF-0.33333333333333331
aF0
aF0.33333333333333331
aF0
aF-0.33333333333333331
aF0
aF1
aF0
aNaNaF0
aF0
aF0.33333333333333331
aF1.3333333333333333
aF0.33333333333333331
aF-18.333333333333332
aF-8
aF-359.66666666666669
aF-141
aF86.333333333333343
aF437
aF9
aF0
aI-207
aF6.4091066836603519
aS'A'
aS'H'
ag5
(S'\x07\xdc\x0c\t'
tRp857
aS'Man City'
p858
aS'Man United'
p859
aag539
a(lp860
F-1
aF0
aF1.6666666666666667
aNaNaF1.6666666666666667
aF-1
aF-1
aF2.6666666666666665
aF0
aF1.3333333333333333
aF0
aF0
aNaNaF-0.33333333333333331
aF1.3333333333333333
aF0.33333333333333331
aF-0.33333333333333331
aF-0.33333333333333331
aF-0.33333333333333331
aF0
aF-0.33333333333333331
aNaNaF0
aF-0.33333333333333331
aF0
aF-0.33333333333333331
aF0.33333333333333331
aF26.666666666666668
aF2.333333333333333
aF143.99999999999989
aF181.33333333333331
aF-45.333333333333329
aF-158.99999999999997
aF-9
aF0
aI-489
aF6.4091066836603519
aS'H'
aS'H'
ag5
(S'\x07\xdc\x04\x1e'
tRp861
aS'Man City'
p862
aS'Man United'
p863
aag591
a(lp864
F0
aF0
aF0
aNaNaF0
aF0
aF1
aF-2.6666666666666665
aF1.6666666666666667
aF0
aF0
aF0
aNaNaF0
aF-1
aF-0.33333333333333331
aF0
aF0
aF0
aF0
aF0
aNaNaF0
aF0.33333333333333331
aF0
aF1.3333333333333333
aF-0.33333333333333331
aF-28.000000000000004
aF0
aF-368
aF-153
aF50.666666666666671
aF-186.66666666666666
aF2.333333333333333
aF0
aI-84
aF6.4091066836603519
aS'A'
aS'H'
ag5
(S'\x07\xdb\n\x17'
tRp865
aS'Man United'
p866
aS'Man City'
p867
aag627
a(lp868
F-3
aF1
aF1.3333333333333333
aNaNaF1.6666666666666667
aF0.33333333333333331
aF1
aF1
aF3
aF2
aF0.33333333333333331
aF-1.3333333333333333
aNaNaF0
aF-2.6666666666666665
aF-0.33333333333333331
aF0
aF-0.33333333333333331
aF0
aF-1.3333333333333333
aF0
aNaNaF-0.33333333333333331
aF0.33333333333333331
aF0
aF-0.33333333333333331
aF-1.3333333333333333
aF7.9999999999999982
aF-5.3333333333333339
aF0
aF-21
aF-100.33333333333334
aF-189
aF0
aF0
aI515
aF6.4091066836603519
aS'H'
aS'H'
ag5
(S'\x07\xdb\x02\x0c'
tRp869
aS'Man United'
p870
aS'Man City'
p871
aag659
a(lp872
F3
aF-1
aF-3
aNaNaF-0.66666666666666674
aF-0.33333333333333331
aF0
aF-2.6666666666666665
aF1
aF-2
aF-0.33333333333333331
aF1.3333333333333333
aNaNaF0
aF1.6666666666666667
aF0.33333333333333331
aF1.3333333333333333
aF0.33333333333333331
aF0
aF1.3333333333333333
aF0.33333333333333331
aNaNaF0.33333333333333331
aF-0.33333333333333331
aF-1
aF0
aF-1.3333333333333333
aF-9
aF0
aF-237.00000000000006
aF-75
aF31.999999999999993
aF240.00000000000006
aF18.333333333333332
aF1.3333333333333333
aI-129
aF6.4091066836603519
aS'D'
aS'H'
ag5
(S'\x07\xda\x0b\n'
tRp873
aS'Man City'
p874
aS'Man United'
p875
aa(lp876
F2
aF-0.5
aF-1
aNaNaF-1.5
aF-0.5
aF0.5
aF2.6666666666666665
aF0
aF-2
aF-0.5
aF1
aNaNaF0
aF1.5
aF0
aF-0.33333333333333331
aF0.33333333333333331
aF0
aF2
aF0
aNaNaF0.5
aF0
aF-0.5
aF-0.33333333333333331
aF-0.33333333333333331
aF56.999999999999993
aF21
aF328.00000000000006
aF203.66666666666669
aF22.666666666666671
aF-219.00000000000006
aF-5.3333333333333339
aF0
aI-1485
aF6.4091066836603519
aS'A'
aS'A'
ag5
(S'\x07\xda\x04\x11'
tRp877
aS'Man City'
p878
aS'Man United'
p879
aag699
ag731
asg517
(lp880
g515
ag543
a(lp881
F1
aF0
aF1
aF0
aNaF0
aF-2.6666666666666665
aF1.6666666666666667
aF1.6666666666666667
aF1
aF-0.33333333333333331
aF-0.33333333333333331
aF0
aF1
aNaF0
aF0.33333333333333331
aF0
aF-0.33333333333333331
aF0
aF0
aF0.33333333333333331
aF-0.33333333333333331
aF-0.33333333333333331
aNaF0
aF0.33333333333333331
aF-0.33333333333333331
aF0
aF-0.33333333333333331
aF28.000000000000004
aF11.666666666666666
aF-438.66666666666663
aF-149.33333333333331
aF-245.33333333333331
aF41.333333333333314
aF13.333333333333332
aF0
aI216
aF258.51867563718656
aS'H'
aS'H'
ag5
(S'\x07\xdc\x0b\x03'
tRp882
aS'Man United'
p883
aS'Arsenal'
p884
aag575
a(lp885
F0
aF-0.33333333333333331
aF-1.3333333333333333
aF0
aNaF-1.6666666666666667
aF1.6666666666666667
aF-1
aF0
aF0
aF0
aF0
aF1.3333333333333333
aF0
aNaF0
aF0
aF0
aF0
aF-0.33333333333333331
aF0
aF1
aF0
aF0
aNaF0.33333333333333331
aF-0.33333333333333331
aF1
aF0
aF0.33333333333333331
aF-3.0000000000000009
aF1
aF-130.66666666666663
aF-35.999999999999972
aF-245
aF41.333333333333314
aF-2.333333333333333
aF0.33333333333333331
aI-1008
aF258.51867563718656
aS'A'
aS'A'
ag5
(S'\x07\xdc\x01\x16'
tRp886
aS'Arsenal'
p887
aS'Man United'
p888
aag603
a(lp889
F0.33333333333333331
aF-1
aF-1.3333333333333333
aF-1
aNaF-2.6666666666666665
aF1
aF-1
aF-1.3333333333333333
aF-0.33333333333333331
aF-1.6666666666666667
aF-0.33333333333333331
aF1.3333333333333333
aF0
aNaF0.33333333333333331
aF-0.33333333333333331
aF0
aF0.33333333333333331
aF-0.33333333333333331
aF0
aF1.3333333333333333
aF0
aF1
aNaF0.33333333333333331
aF0
aF1
aF1
aF2.6666666666666665
aF5.3333333333333339
aF1.6666666666666667
aF-420.33333333333337
aF-179.99999999999997
aF-52.999999999999972
aF192.00000000000006
aF18.333333333333332
aF0
aI-1233
aF258.51867563718656
aS'H'
aS'H'
ag5
(S'\x07\xdb\x05\x01'
tRp890
aS'Arsenal'
p891
aS'Man United'
p892
aag651
a(lp893
F0
aF0
aF2.6666666666666665
aF1
aNaF2.5
aF-1
aF0
aF0
aF0
aF-1
aF0.33333333333333331
aF-1.3333333333333333
aF-0.33333333333333331
aNaF-0.5
aF0.33333333333333331
aF-0.33333333333333331
aF-0.33333333333333331
aF0
aF0
aF-0.33333333333333331
aF0
aF0
aNaF0
aF0
aF1
aF0.33333333333333331
aF0
aF19.000000000000004
aF-3.0000000000000009
aF122.66666666666663
aF137.66666666666666
aF120
aF-111.99999999999997
aF0
aF0
aI-63
aF258.51867563718656
aS'H'
aS'H'
ag5
(S'\x07\xda\x0c\r'
tRp894
aS'Man United'
p895
aS'Arsenal'
p896
aag679
a(lp897
F0
aF1
aF0
aF-1
aNaF-1
aF-0.5
aF0
aF0
aF1
aF0
aF-1
aF0
aF1
aNaF0
aF0
aF1
aF0
aF-0.33333333333333331
aF0
aF0
aF0
aF0
aNaF0
aF0.5
aF-1
aF0
aF0
aF-9.3333333333333321
aF1
aF-617.66666666666663
aF-111.66666666666669
aF-186.99999999999997
aF111.66666666666669
aF7.0000000000000009
aF-0.33333333333333331
aI-99
aF258.51867563718656
aS'A'
aS'H'
ag5
(S'\x07\xda\x01\x1f'
tRp898
aS'Arsenal'
p899
aS'Man United'
p900
aag735
asg514
(lp901
g512
a(lp902
F-1.3333333333333333
aF-2.6666666666666665
aF-0.33333333333333331
aF0
aNaF1.6666666666666667
aF-0.33333333333333331
aNaF-3
aF-1.3333333333333333
aF3
aF0.33333333333333331
aF1
aF-1
aNaF-0.33333333333333331
aF1
aNaF0.33333333333333331
aF0.33333333333333331
aF-0.33333333333333331
aF0.33333333333333331
aF0
aF0.33333333333333331
aNaF0
aF0
aNaF1.3333333333333333
aF1
aF-11
aF0
aF-208.00000000000006
aF-129
aF11
aF421.66666666666669
aF5.333333333333333
aF0
aI-4515
aF171.74840979274185
aS'A'
aS'A'
ag5
(S'\x07\xdd\x03\x1e'
tRp903
aS'Sunderland'
p904
aS'Man United'
p905
aa(lp906
F1.3333333333333333
aF1
aF1.3333333333333333
aF0
aNaF0
aF0.33333333333333331
aNaF2.6666666666666665
aF2.6666666666666665
aF-3
aF0
aF-1
aF1
aNaF0
aF-1
aNaF-1.3333333333333333
aF-1.3333333333333333
aF0.33333333333333331
aF-1
aF-0.33333333333333331
aF-0.33333333333333331
aNaF0
aF0
aNaF0
aF0
aF12.999999999999998
aF13.333333333333332
aF-145
aF-96
aF-155
aF-147
aF0
aF0
aI1265
aF171.74840979274185
aS'H'
aS'H'
ag5
(S'\x07\xdc\x0c\x0f'
tRp907
aS'Man United'
p908
aS'Sunderland'
p909
aag547
a(lp910
F-1.3333333333333333
aF0
aF-1.3333333333333333
aF0
aNaF0
aF-1.3333333333333333
aNaF-0.33333333333333331
aF-0.33333333333333331
aF3
aF0
aF1.3333333333333333
aF-1
aNaF0
aF1.3333333333333333
aNaF0
aF-1.3333333333333333
aF-0.33333333333333331
aF0
aF0
aF0.33333333333333331
aNaF0
aF0
aNaF1
aF3
aF-9
aF-1.6666666666666667
aF-448.00000000000006
aF-212.33333333333331
aF-215
aF-105
aF-2.333333333333333
aF0.33333333333333331
aI-5371
aF171.74840979274185
aS'A'
aS'A'
ag5
(S'\x07\xdc\x05\r'
tRp911
aS'Sunderland'
p912
aS'Man United'
p913
aag567
ag599
a(lp914
F1
aF0.33333333333333331
aF1
aF0
aNaF2.6666666666666665
aF1.3333333333333333
aNaF0
aF1
aF-1
aF0
aF-0.33333333333333331
aF0
aNaF0
aF-1.3333333333333333
aNaF0
aF-1
aF0
aF-1
aF0
aF0
aNaF-1.3333333333333333
aF0
aNaF0
aF0
aF-5.3333333333333339
aF-1
aF-226.66666666666669
aF-65.000000000000014
aF-67.666666666666657
aF-148.00000000000006
aF0
aF0.33333333333333331
aI429
aF171.74840979274185
aS'H'
aS'H'
ag5
(S'\x07\xdb\x0b\x05'
tRp915
aS'Man United'
p916
aS'Sunderland'
p917
aag647
a(lp918
F-0.33333333333333331
aF1
aF2.6666666666666665
aF1
aNaF3
aF0.33333333333333331
aNaF1.6666666666666667
aF2.6666666666666665
aF0.66666666666666674
aF0
aF-0.33333333333333331
aF-0.33333333333333331
aNaF-0.33333333333333331
aF0
aNaF0
aF-0.33333333333333331
aF0
aF-0.33333333333333331
aF-0.33333333333333331
aF0
aNaF-1.3333333333333333
aF-1
aNaF-0.33333333333333331
aF-0.33333333333333331
aF32
aF7.0000000000000009
aF145
aF242.66666666666669
aF81.666666666666671
aF15
aF-3
aF0
aI427
aF171.74840979274185
aS'H'
aS'H'
ag5
(S'\x07\xda\x0c\x1a'
tRp919
aS'Man United'
p920
aS'Sunderland'
p921
aag675
a(lp922
F0
aF-1
aF-1.5
aF-1.6666666666666667
aNaF-2
aF-0.33333333333333331
aNaF-0.33333333333333331
aF0
aF0
aF0
aF0.5
aF0.33333333333333331
aNaF0.33333333333333331
aF0.16666666666666669
aNaF0
aF0.33333333333333331
aF0
aF0.33333333333333331
aF0
aF0.33333333333333331
aNaF1.3333333333333333
aF0.16666666666666669
aNaF1.6666666666666667
aF-1
aF-16
aF-2.6666666666666665
aF-260.33333333333337
aF-125.66666666666667
aF-101.33333333333334
aF-586.66666666666674
aF-7.9999999999999982
aF0.33333333333333331
aI-95
aF171.74840979274185
aS'D'
aS'A'
ag5
(S'\x07\xda\n\x02'
tRp923
aS'Sunderland'
p924
aS'Man United'
p925
aa(lp926
F0
aF0
aF-1.5
aF-2
aNaF-2
aF-0.5
aNaF0
aF1.6666666666666667
aF0
aF0
aF0.5
aF0.5
aNaF0.5
aF0
aNaF0.33333333333333331
aF0
aF0
aF0
aF0
aF0.5
aNaF0.5
aF0.5
aNaF-0.33333333333333331
aF-0.33333333333333331
aF-2.333333333333333
aF3
aF-152.00000000000006
aF80.000000000000014
aF0
aF410.66666666666669
aF21.666666666666668
aF0.33333333333333331
aI-4305
aF171.74840979274185
aS'A'
aS'A'
ag5
(S'\x07\xda\x05\x02'
tRp927
aS'Sunderland'
p928
aS'Man United'
p929
aag727
ag739
a(lp930
F0
aF0
aF1
aF1
aNaF1
aF0
aNaF1.6666666666666667
aF1
aF-1
aF0
aF0
aF0
aNaF0
aF0
aNaF-0.33333333333333331
aF-2
aF0
aF0
aF0
aF0
aNaF0
aF0
aNaF0
aF0
aF-6.3333333333333357
aF0
aF658.66666666666663
aF224
aF135
aF-435
aF-3.6666666666666661
aF0.33333333333333331
aI180
aF171.74840979274185
aS'D'
aS'H'
ag5
(S'\x07\xd9\n\x03'
tRp931
aS'Man United'
p932
aS'Sunderland'
p933
aasS'Wigan'
p934
(lp935
(lp936
F-1.3333333333333333
aF-1
aF-1
aF-0.33333333333333331
aNaNaF-0.33333333333333331
aF-2.6666666666666665
aF-1
aF-1.3333333333333333
aF1.3333333333333333
aF0.33333333333333331
aF1
aF1.6666666666666667
aNaNaF0
aF1.3333333333333333
aF1.3333333333333333
aF1.3333333333333333
aF0
aF0
aF0
aF0
aNaNaF1
aF0
aF-0.33333333333333331
aF0
aF-11
aF-2.6666666666666665
aF-560
aF-437.00000000000006
aF-69.333333333333329
aF-93.333333333333314
aF-9.3333333333333321
aF0
aI-2077
aF25.730718885093015
aS'A'
aS'A'
ag5
(S'\x07\xdd\x01\x01'
tRp937
ag934
aS'Man United'
p938
aag535
ag555
a(lp939
F-1.3333333333333333
aF0
aF-1.3333333333333333
aF-0.33333333333333331
aNaNaF-1.3333333333333333
aF-1
aF-1.6666666666666667
aF-2.6666666666666665
aF1.3333333333333333
aF-0.33333333333333331
aF1.3333333333333333
aF2.6666666666666665
aNaNaF0.33333333333333331
aF1.3333333333333333
aF0.33333333333333331
aF0.33333333333333331
aF0
aF1
aF0
aF-0.33333333333333331
aNaNaF1
aF-0.33333333333333331
aF0
aF0.33333333333333331
aF0
aF-1
aF-741.66666666666674
aF-255.66666666666666
aF-220.99999999999997
aF0
aF9
aF0
aI-5457
aF25.730718885093015
aS'H'
aS'A'
ag5
(S'\x07\xdc\x04\x0b'
tRp940
aS'Wigan'
p941
aS'Man United'
p942
aag587
a(lp943
F1.3333333333333333
aF0.33333333333333331
aF1
aF0.33333333333333331
aNaNaF1.3333333333333333
aF1
aF2.6666666666666665
aF0
aF-1
aF0.33333333333333331
aF-0.33333333333333331
aF-2.6666666666666665
aNaNaF-0.33333333333333331
aF-0.33333333333333331
aF0
aF-0.33333333333333331
aF-0.33333333333333331
aF-2.6666666666666665
aF0
aF0.33333333333333331
aNaNaF-1
aF0
aF-1.3333333333333333
aF0.33333333333333331
aF37.333333333333336
aF11.666666666666666
aF552
aF441
aF176
aF-158.99999999999997
aF1.6666666666666667
aF0
aI1568
aF25.730718885093015
aS'H'
aS'H'
ag5
(S'\x07\xdb\x0c\x1a'
tRp944
aS'Man United'
p945
aS'Wigan'
p946
aag631
a(lp947
F0.33333333333333331
aF-1
aF-1
aF-1.3333333333333333
aNaNaF-0.33333333333333331
aF-1
aF-1
aF0
aF-0.66666666666666674
aF-0.33333333333333331
aF1.3333333333333333
aF1.3333333333333333
aNaNaF1
aF0
aF-0.33333333333333331
aF0
aF0
aF1.3333333333333333
aF-0.33333333333333331
aF0
aNaNaF0
aF1
aF1.3333333333333333
aF0
aF4.3333333333333321
aF-2.333333333333333
aF-316.33333333333337
aF-106.66666666666667
aF-9.6666666666666714
aF192.00000000000006
aF21.666666666666668
aF0
aI-2520
aF25.730718885093015
aS'A'
aS'A'
ag5
(S'\x07\xdb\x02\x1a'
tRp948
aS'Wigan'
p949
aS'Man United'
p950
aag663
a(lp951
F-0.33333333333333331
aF1
aF2.6666666666666665
aF1.3333333333333333
aNaNaF0.33333333333333331
aF0
aF0
aF1.3333333333333333
aF0.66666666666666674
aF0
aF-1.3333333333333333
aF-1.3333333333333333
aNaNaF-1.6666666666666667
aF0
aF-0.33333333333333331
aF-1.3333333333333333
aF0
aF-0.33333333333333331
aF0
aF0
aNaNaF0.33333333333333331
aF0
aF1
aF0
aF2.333333333333333
aF0.33333333333333331
aF-50.666666666666686
aF30.666666666666657
aF-10.333333333333329
aF-165.33333333333331
aF13.333333333333332
aF0
aI429
aF25.730718885093015
aS'H'
aS'H'
ag5
(S'\x07\xda\x0b\x14'
tRp952
aS'Man United'
p953
aS'Wigan'
p954
aag723
a(lp955
F-1
aF0
aF1
aF1
aNaNaF1
aF-1
aF1.3333333333333333
aF1.3333333333333333
aF1
aF0
aF-1
aF0
aNaNaF-1
aF0
aF0
aF-1
aF0
aF0
aF0
aF-1
aNaNaF0
aF1
aF-1.3333333333333333
aF-0.33333333333333331
aF6.666666666666667
aF2.6666666666666665
aF373.33333333333337
aF45
aF58.333333333333329
aF176
aF2.333333333333333
aF0
aI1239
aF25.730718885093015
aS'H'
aS'H'
ag5
(S'\x07\xd9\x0c\x1e'
tRp956
aS'Man United'
p957
aS'Wigan'
p958
aasg646
(lp959
g643
a(lp960
F-0.33333333333333331
aF1.3333333333333333
aF1.3333333333333333
aF1.3333333333333333
aNaF1.6666666666666667
aF0.33333333333333331
aF1
aF1
aF2.6666666666666665
aF1.6666666666666667
aF0.33333333333333331
aF-0.33333333333333331
aF-0.33333333333333331
aNaF0
aF0
aF-0.33333333333333331
aF-0.33333333333333331
aF-0.33333333333333331
aF-0.33333333333333331
aF-3
aF-1
aF-1
aNaF-0.33333333333333331
aF-1
aF0
aF0
aF-0.33333333333333331
aF2.333333333333333
aF1
aF57
aF17.333333333333329
aF-28.999999999999993
aF213.33333333333331
aF7.9999999999999982
aF0.33333333333333331
aI1496
aF113.36331103616492
aS'H'
aS'H'
ag5
(S'\x07\xdb\x01\x16'
tRp961
aS'Man United'
p962
aS'Birmingham'
p963
aa(lp964
F0.33333333333333331
aF-1.3333333333333333
aF-3
aF-1.3333333333333333
aNaF-1.6666666666666667
aF-0.33333333333333331
aF-1
aF-3
aF0
aF-1.6666666666666667
aF-0.33333333333333331
aF0.33333333333333331
aF0.33333333333333331
aNaF0
aF0
aF0.33333333333333331
aF0.33333333333333331
aF0
aF0.33333333333333331
aF3
aF1.3333333333333333
aF1
aNaF0.33333333333333331
aF1
aF0
aF1.3333333333333333
aF0
aF-32
aF-8
aF-440
aF-299
aF-27
aF320
aF8.3333333333333339
aF0
aI-1045
aF113.36331103616492
aS'D'
aS'A'
ag5
(S'\x07\xda\x0c\x1c'
tRp965
aS'Birmingham'
p966
aS'Man United'
p967
aag687
ag703
a(lp968
F0
aF0
aF-1
aF-1
aNaF-1
aF-1
aF1
aF-1
aF0
aF-1
aF-1
aF1
aF0
aNaF0
aF0
aF0
aF-0.33333333333333331
aF-0.33333333333333331
aF1
aF1
aF0
aF1
aNaF0
aF1
aF-1
aF1.3333333333333333
aF0.33333333333333331
aF-20
aF-5
aF-959.99999999999989
aF-287
aF33
aF-80
aF13.333333333333332
aF0
aI-825
aF113.36331103616492
aS'D'
aS'A'
ag5
(S'\x07\xda\x01\t'
tRp969
aS'Birmingham'
p970
aS'Man United'
p971
aag743
asg710
(lp972
g707
a(lp973
F0
aF0
aF1
aF1
aNaF1
aF0
aF0
aF1.3333333333333333
aF3
aF0
aF0
aF-0.5
aF0
aNaF0
aF0
aF-1
aF-0.33333333333333331
aF-0.33333333333333331
aF0
aF0
aF-0.5
aF-1
aNaF0
aF0
aF1
aF-1
aF-1.3333333333333333
aF24
aF3
aF899
aF381.33333333333331
aF160
aF-267.66666666666669
aF-5
aF0.33333333333333331
aI1848
aF130.7157106503052
aS'H'
aS'H'
ag5
(S'\x07\xda\x01\x17'
tRp974
aS'Man United'
p975
aS'Hull'
p976
aa(lp977
F0
aF0
aF-1
aF-1
aNaF0
aF0
aF0
aF-0.33333333333333331
aF-1
aF0
aF0
aF1
aF0
aNaF0
aF0
aF1
aF0
aF-0.33333333333333331
aF0
aF0
aF0
aF1
aNaF0
aF0
aF-1
aF0.33333333333333331
aF1.3333333333333333
aF-3
aF-1.3333333333333333
aF-512
aF-128
aF-108.33333333333333
aF424.33333333333337
aF24
aF0
aI-1080
aF130.7157106503052
aS'A'
aS'A'
ag5
(S'\x07\xd9\x0c\x1b'
tRp978
aS'Hull'
p979
aS'Man United'
p980
aag755
asg530
(lp981
g527
a(lp982
F0
aF0
aF1.3333333333333333
aF0.33333333333333331
aNaF1
aF0
aF1.6666666666666667
aF0
aF2.6666666666666665
aF-0.33333333333333331
aF-0.33333333333333331
aF-1
aF0
aNaF0
aF-1
aF0
aF0
aF-1.3333333333333333
aF0.33333333333333331
aF0.33333333333333331
aF-0.33333333333333331
aF-0.33333333333333331
aNaF-0.33333333333333331
aF0.33333333333333331
aF-0.33333333333333331
aF0
aF0
aF16
aF4
aF217
aF149.33333333333331
aF-80.000000000000014
aF128.33333333333337
aF11
aF0
aI1027
aF108.34188505012203
aS'H'
aS'H'
ag5
(S'\x07\xdc\x0c\x1d'
tRp983
aS'Man United'
p984
aS'West Brom'
p985
aag571
a(lp986
F1
aF0
aF1.3333333333333333
aF0.33333333333333331
aNaF3
aF0
aF0
aF0
aF1.6666666666666667
aF-1.3333333333333333
aF-1
aF-1.3333333333333333
aF-1
aNaF-1.3333333333333333
aF-0.33333333333333331
aF0
aF0
aF0
aF0.33333333333333331
aF0.33333333333333331
aF0
aF0
aNaF-0.33333333333333331
aF0.33333333333333331
aF0
aF0
aF-0.33333333333333331
aF-17.000000000000004
aF-1.6666666666666667
aF-1061.6666666666667
aF-400
aF-239.99999999999997
aF74.666666666666657
aF3.0000000000000009
aF0
aI2871
aF108.34188505012203
aS'H'
aS'H'
ag5
(S'\x07\xdc\x03\x0b'
tRp987
aS'Man United'
p988
aS'West Brom'
p989
aag595
ag623
a(lp990
F0
aF-1.3333333333333333
aF-3
aF-1.3333333333333333
aNaF-3
aF0.66666666666666674
aF-0.33333333333333326
aF-1.3333333333333333
aF0.33333333333333331
aF-1
aF0.66666666666666674
aF0
aF1
aNaF1
aF-0.33333333333333331
aF0
aF3
aF1.3333333333333333
aF0
aF0
aF1
aF-0.33333333333333331
aNaF0
aF-0.33333333333333331
aF-0.33333333333333331
aF-0.33333333333333331
aF-3
aF-4
aF-1
aF255.00000000000006
aF0
aF196
aF77.333333333333314
aF2.333333333333333
aF0.33333333333333331
aI-960
aF108.34188505012203
aS'A'
aS'A'
ag5
(S'\x07\xdb\x01\x01'
tRp991
aS'West Brom'
p992
aS'Man United'
p993
aag671
a(lp994
F0
aF1.3333333333333333
aF2
aF2
aNaF2
aF0.33333333333333331
aF-0.66666666666666674
aF-1
aF2
aF1
aF-0.66666666666666674
aF0
aF0
aNaF0
aF0.33333333333333331
aF0
aF0
aF0
aF0
aF0
aF-1
aF0
aNaF0
aF0.33333333333333331
aF1.3333333333333333
aF1
aF0
aF-7.9999999999999982
aF1.3333333333333333
aF-52.000000000000057
aF-95.666666666666671
aF76.000000000000014
aF144
aF5
aF0
aI48
aF108.34188505012203
aS'D'
aS'H'
ag5
(S'\x07\xda\n\x10'
tRp995
aS'Man United'
p996
aS'West Brom'
p997
aasg7
(lp998
g4
ag471
ag348
ag853
ag902
ag58
ag100
ag322
ag523
ag237
ag462
ag412
ag769
ag936
ag982
ag285
ag78
ag906
ag856
ag65
ag478
ag326
ag111
ag12
ag881
ag818
ag359
ag289
ag910
ag82
ag860
ag563
ag16
ag939
ag334
ag174
ag248
ag793
ag986
ag424
ag119
ag772
ag822
ag367
ag885
ag133
ag297
ag181
ag943
ag252
ag342
ag797
ag24
ag301
ag94
ag914
ag611
ag864
ag776
ag127
ag220
ag185
ag826
ag889
ag635
ag309
ag260
ag482
ag144
ag780
ag830
ag947
ag868
ag801
ag32
ag227
ag960
ag432
ag375
ag990
ag964
ag918
ag893
ag193
ag951
ag36
ag872
ag805
ag440
ag387
ag994
ag922
ag391
ag926
ag448
ag876
ag201
ag834
ag156
ag784
ag272
ag809
ag498
ag711
ag44
ag843
ag897
ag973
ag211
ag968
ag955
ag977
ag276
ag813
ag48
ag502
ag847
ag759
ag838
ag205
ag788
ag168
ag930
ag403
as.