(lp1
(lp2
F1
aF2.6666666666666665
aF0.33333333333333331
aF0.33333333333333331
aNaF1
aF0.33333333333333331
aF2.6666666666666665
aF0
aF0
aF-1.3333333333333333
aF-0.33333333333333331
aF-1
aF-1.6666666666666667
aNaF0
aF0
aF0
aF0
aF0
aF0.33333333333333331
aF-0.33333333333333331
aF0
aF0
aNaF-0.33333333333333331
aF-1
aF-1.3333333333333333
aF0
aF0
aF0
aF0
aF101.33333333333337
aF-41.000000000000014
aF50.666666666666671
aF71.999999999999972
aF2.333333333333333
aF0
aI5405
aF109.52360384404703
aS'H'
aS'H'
acdatetime
date
p3
(S'\x07\xdd\x04\x16'
tRp4
aS'Man United'
p5
aS'Aston Villa'
p6
aa(lp7
F-0.33333333333333331
aF0.33333333333333331
aF-1.3333333333333333
aF-1
aF-0.33333333333333331
aF2.6666666666666665
aNaNaF0
aF0
aF1.6666666666666667
aF-1
aF1.3333333333333333
aF0.33333333333333331
aF2.6666666666666665
aF0
aNaNaF1.3333333333333333
aF0
aF0
aF0
aF0
aF0
aF-0.33333333333333331
aF-1.3333333333333333
aNaNaF-1.3333333333333333
aF0
aF0
aF0
aF-171
aF-68.000000000000014
aF-37.000000000000014
aF137.66666666666666
aF0
aF0
aI-1980
aF193.56559314115574
aS'H'
aS'A'
ag3
(S'\x07\xdd\x04\x14'
tRp8
aS'Sunderland'
p9
aS'Everton'
p10
aa(lp11
F-1
aF-2.6666666666666665
aF-0.33333333333333331
aF-0.33333333333333331
aNaF-1
aF-0.33333333333333331
aF-3
aF-1
aF-1.6666666666666667
aF1.3333333333333333
aF0.33333333333333331
aF1
aF0
aNaF1
aF0
aF1.3333333333333333
aF-0.33333333333333331
aF0.33333333333333331
aF-0.33333333333333331
aF0.33333333333333331
aF0
aF0.33333333333333331
aNaF0
aF1
aF0.33333333333333331
aF1.3333333333333333
aF0
aF0
aF0
aF-108.33333333333331
aF0
aF-121
aF21
aF0
aF0
aI-4956
aF266.43730284713479
aS'D'
aS'A'
ag3
(S'\x07\xdd\x04\x11'
tRp12
aS'West Ham'
p13
aS'Man United'
p14
aa(lp15
F-0.33333333333333331
aF1.3333333333333333
aF0
aF-1
aF-0.33333333333333331
aF1
aNaF0
aF1.6666666666666667
aF3
aF0
aF-1.3333333333333333
aF0.33333333333333331
aF0.33333333333333331
aF2.6666666666666665
aF0.33333333333333331
aNaF0
aF0
aF-1.3333333333333333
aF0.33333333333333331
aF0
aF-0.33333333333333331
aF0
aF-0.33333333333333331
aF-1.3333333333333333
aNaF0
aF-0.33333333333333331
aF-0.33333333333333331
aF18.666666666666664
aF-1.6666666666666667
aF164.00000000000006
aF51
aF15.666666666666657
aF98.333333333333314
aF0
aF0.33333333333333331
aI456
aF285.11763486171071
aS'D'
aS'H'
ag3
(S'\x07\xdd\x04\x10'
tRp16
aS'Arsenal'
p17
aS'Everton'
p18
aa(lp19
F-1.3333333333333333
aF-2.6666666666666665
aF0
aF-0.33333333333333331
aNaF-1.3333333333333333
aF-0.33333333333333331
aF-3
aF-1.3333333333333333
aF-3
aF3
aF0
aF-0.33333333333333331
aF-1
aNaF0
aF0
aF1.3333333333333333
aF1
aF1.3333333333333333
aF-0.33333333333333331
aF1.3333333333333333
aF1
aF1.3333333333333333
aNaF1.3333333333333333
aF1
aF0.33333333333333331
aF0.33333333333333331
aF0.33333333333333331
aF-2.6666666666666665
aF-1.3333333333333333
aF-336.00000000000006
aF-99
aF-68.000000000000014
aF557.33333333333337
aF16
aF0
aI-4773
aF53.323400364781961
aS'A'
aS'A'
ag3
(S'\x07\xdd\x04\x0e'
tRp20
aS'Stoke'
p21
aS'Man United'
p22
aa(lp23
F0
aF-0.33333333333333331
aF1
aF1.3333333333333333
aF0.33333333333333331
aF0
aNaF1
aF1.3333333333333333
aF2.6666666666666665
aF1
aF0
aF-0.33333333333333331
aF-1.3333333333333333
aF-2.6666666666666665
aF0
aNaF-0.33333333333333331
aF-1.3333333333333333
aF-1.3333333333333333
aF-0.33333333333333331
aF0.33333333333333331
aF0
aF0
aF0.33333333333333331
aF0
aNaF0
aF0
aF0
aF0
aF1.6666666666666667
aF-208.00000000000006
aF-71.666666666666671
aF111.00000000000001
aF206.66666666666666
aF3.6666666666666661
aF0
aI2128
aF283.38430258525636
aS'H'
aS'H'
ag3
(S'\x07\xdd\x04\r'
tRp24
aS'Everton'
p25
aS'QPR'
p26
aa(lp27
F0
aF2.6666666666666665
aF-2.6666666666666665
aNaNaF-1.6666666666666667
aF0.33333333333333331
aF2.6666666666666665
aF1.6666666666666667
aF2.6666666666666665
aF0
aF0
aF0.33333333333333331
aNaNaF0.33333333333333331
aF-1
aF-0.33333333333333331
aF-0.33333333333333331
aF-1.3333333333333333
aF0
aF-1.3333333333333333
aF0.33333333333333331
aNaNaF0
aF0
aF-0.33333333333333331
aF0
aF0
aF3.6666666666666661
aF0
aF-511.99999999999989
aF-193.33333333333331
aF-25.333333333333343
aF-179.66666666666669
aF-2.6666666666666665
aF0
aI2085
aF6.4091066836603519
aS'A'
aS'H'
ag3
(S'\x07\xdd\x04\x08'
tRp28
aS'Man United'
p29
aS'Man City'
p30
aa(lp31
F-0.33333333333333331
aF0.33333333333333331
aNaF-1.3333333333333333
aF0
aF1
aNaF0
aF-2.6666666666666665
aF1.3333333333333333
aF-1
aF-1
aNaF3
aF0
aF0.33333333333333331
aNaF0
aF1.3333333333333333
aF-1
aF1.3333333333333333
aF0
aNaF-0.33333333333333331
aF0
aF-1.3333333333333333
aNaF0
aF0
aF-0.33333333333333331
aF-6.666666666666667
aF0
aF-213.33333333333337
aF-64
aF-185
aF-170.66666666666669
aF0
aF-0.33333333333333331
aI648
aF283.10486349992709
aS'D'
aS'H'
ag3
(S'\x07\xdd\x04\x07'
tRp32
aS'Tottenham'
p33
aS'Everton'
p34
aa(lp35
F0.33333333333333331
aF-0.33333333333333331
aF1
aF1.3333333333333333
aF0.33333333333333331
aF0.33333333333333331
aNaF1.3333333333333333
aF1.3333333333333333
aF1.3333333333333333
aF-1.6666666666666667
aF1.3333333333333333
aF0.33333333333333331
aF-0.33333333333333331
aF-1
aF-0.33333333333333331
aNaF-1.3333333333333333
aF-1
aF-3
aF0
aF-1
aF-1.3333333333333333
aF-1
aF0
aF0
aNaF0
aF-0.33333333333333331
aF0.33333333333333331
aF11.666666666666666
aF3
aF233.33333333333337
aF121
aF168
aF-144
aF6.666666666666667
aF0.33333333333333331
aI1148
aF72.664635257232376
aS'H'
aS'H'
ag3
(S'\x07\xdd\x03\x1e'
tRp36
aS'Everton'
p37
aS'Stoke'
p38
aa(lp39
F-1.3333333333333333
aF-2.6666666666666665
aF-0.33333333333333331
aF0
aNaF1.6666666666666667
aF-0.33333333333333331
aNaF-3
aF-1.3333333333333333
aF3
aF0.33333333333333331
aF1
aF-1
aNaF-0.33333333333333331
aF1
aNaF0.33333333333333331
aF0.33333333333333331
aF-0.33333333333333331
aF0.33333333333333331
aF0
aF0.33333333333333331
aNaF0
aF0
aNaF1.3333333333333333
aF1
aF-11
aF0
aF-208.00000000000006
aF-129
aF11
aF421.66666666666669
aF5.333333333333333
aF0
aI-4515
aF171.74840979274185
aS'A'
aS'A'
ag3
(S'\x07\xdd\x03\x1e'
tRp40
aS'Sunderland'
p41
aS'Man United'
p42
aa(lp43
F-1
aF-0.33333333333333331
aF-1.6666666666666667
aNaF-1
aF-2.6666666666666665
aNaF1
aF-1
aF1
aF1.3333333333333333
aF1.3333333333333333
aF0.33333333333333331
aNaF0
aF0
aNaF-0.33333333333333331
aF1
aF-0.33333333333333331
aF-0.33333333333333331
aF-1
aF0
aNaF0.33333333333333331
aF1.3333333333333333
aNaF0
aF0
aF0
aF0
aF0
aF-106.66666666666669
aF-34.666666666666657
aF37.000000000000014
aF-462.33333333333337
aF-3.0000000000000009
aF0
aI-1456
aF50.938602100397503
aS'H'
aS'A'
ag3
(S'\x07\xdd\x03\x10'
tRp44
aS'Everton'
p45
aS'Man City'
p46
aa(lp47
F1.3333333333333333
aF3
aF0.33333333333333331
aF0.33333333333333331
aNaF1.3333333333333333
aF-0.16666666666666669
aF2.5
aF3
aF2.6666666666666665
aF-0.5
aF-1
aF-1.6666666666666667
aF0.33333333333333326
aNaF-1.6666666666666667
aF-0.16666666666666669
aF-0.5
aF-3
aF-1.3333333333333333
aF-0.16666666666666669
aF0
aF0.33333333333333331
aF0
aNaF0
aF0.33333333333333331
aF0
aF0
aF0
aF20
aF5
aF151.66666666666669
aF151.66666666666666
aF0
aF-32
aF-5.333333333333333
aF-0.33333333333333331
aI4512
aF243.636982300981
aS'H'
aS'H'
ag3
(S'\x07\xdd\x03\x10'
tRp48
aS'Man United'
p49
aS'Reading'
p50
aa(lp51
F0.33333333333333331
aF0
aF1.3333333333333333
aF0.33333333333333331
aF0.33333333333333331
aF0.33333333333333331
aNaF0.83333333333333326
aF-0.33333333333333331
aF0
aF0.83333333333333326
aF0.33333333333333326
aF-1.6666666666666667
aF-0.66666666666666674
aF-0.66666666666666674
aF-2
aNaF-0.5
aF0
aF-1.3333333333333333
aF-0.5
aF0.33333333333333331
aF0
aF0.33333333333333331
aF0.33333333333333331
aF1.3333333333333333
aNaF0.33333333333333331
aF0.33333333333333331
aF1.3333333333333333
aF2.333333333333333
aF1
aF441
aF192
aF185
aF0
aF4
aF-0.33333333333333331
aI1235
aF261.44999534816731
aS'H'
aS'H'
ag3
(S'\x07\xdd\x03\x02'
tRp52
aS'Everton'
p53
aS'Reading'
p54
aa(lp55
F1.3333333333333333
aF3
aF0
aF0.33333333333333331
aNaF1
aF0
aF1.6666666666666667
aF2.6666666666666665
aF3
aF-1.3333333333333333
aF-3
aF0.33333333333333331
aF-1.6666666666666667
aNaF0.33333333333333331
aF0.33333333333333331
aF-0.33333333333333331
aF0
aF-1.3333333333333333
aF0
aF0
aF-1
aF0
aNaF-1.3333333333333333
aF-1
aF0
aF-1.3333333333333333
aF-0.33333333333333331
aF7.0000000000000009
aF3
aF-75
aF-64
aF12.333333333333329
aF-312
aF-21
aF0
aI3600
aF258.17584532935979
aS'H'
aS'H'
ag3
(S'\x07\xdd\x03\x02'
tRp56
aS'Man United'
p57
aS'Norwich'
p58
aa(lp59
F-0.33333333333333331
aF0
aF-1
aF-0.33333333333333331
aF0
aF0
aNaF0
aF-0.33333333333333331
aF-0.33333333333333331
aF0
aF1.6666666666666667
aF-0.33333333333333331
aF2.6666666666666665
aF1
aF0
aNaF0.33333333333333331
aF-0.33333333333333331
aF-0.33333333333333331
aF0.33333333333333331
aF-0.33333333333333331
aF1.3333333333333333
aF-0.33333333333333331
aF-0.33333333333333331
aF0
aNaF-0.33333333333333331
aF2.6666666666666665
aF2.6666666666666665
aF-8
aF-2.6666666666666665
aF-131.66666666666669
aF-61.333333333333343
aF-160
aF424.33333333333337
aF37.333333333333336
aF0
aI-923
aF299.9185476421498
aS'H'
aS'A'
ag3
(S'\x07\xdd\x02\x17'
tRp60
aS'Norwich'
p61
aS'Everton'
p62
aa(lp63
F-1
aF-2.6666666666666665
aF0
aF-0.33333333333333331
aNaF-1
aF0
aF-3
aF-3
aF-1.3333333333333333
aF0.33333333333333331
aF1.3333333333333333
aF0
aF0
aNaF0
aF-0.33333333333333331
aF1.3333333333333333
aF0.33333333333333331
aF0
aF0
aF0
aF0
aF0.33333333333333331
aNaF0.33333333333333331
aF1
aF0.33333333333333331
aF1.3333333333333333
aF2.6666666666666665
aF-8
aF-5.333333333333333
aF0
aF-39
aF-55
aF-264.33333333333331
aF13.333333333333332
aF0
aI-3936
aF258.11610071692422
aS'A'
aS'A'
ag3
(S'\x07\xdd\x02\x17'
tRp64
aS'QPR'
p65
aS'Man United'
p66
aa(lp67
F1
aF3
aF-1
aF0
aNaF1
aNaF1.6666666666666667
aF1
aF1.6666666666666667
aF-1.3333333333333333
aF-1.3333333333333333
aF0
aF1
aNaF0.33333333333333331
aNaF0
aF0
aF0
aF0.33333333333333331
aF-0.33333333333333331
aF0.33333333333333331
aF-0.33333333333333331
aNaF-1.3333333333333333
aNaF-0.33333333333333331
aF-1
aF-0.33333333333333331
aF-3.0000000000000009
aF0
aF-316.33333333333337
aF-71.666666666666671
aF-140
aF281.66666666666663
aF14.999999999999998
aF0
aI2080
aF44.782088140421742
aS'H'
aS'H'
ag3
(S'\x07\xdd\x02\n'
tRp68
aS'Man United'
p69
aS'Everton'
p70
aa(lp71
F0
aF-0.33333333333333331
aF1.3333333333333333
aF0.33333333333333331
aF0.33333333333333331
aF0
aNaF1
aF0.33333333333333331
aF0.33333333333333331
aF0
aF1
aF-1
aF-2.6666666666666665
aF-2.6666666666666665
aF-0.33333333333333331
aNaF0
aF-1.3333333333333333
aF0
aF0
aF0
aF-0.33333333333333331
aF0.33333333333333331
aF0.33333333333333331
aF1
aNaF-1
aF1
aF-1
aF-1.6666666666666667
aF0
aF0
aF-26.666666666666671
aF-25.333333333333343
aF-45.333333333333314
aF-25.666666666666668
aF0
aI1281
aF126.23065894863628
aS'D'
aS'H'
ag3
(S'\x07\xdd\x02\x02'
tRp72
aS'Everton'
p73
aS'Aston Villa'
p74
aa(lp75
F-1.3333333333333333
aF-1.6666666666666667
aF-0.33333333333333331
aF-0.33333333333333331
aNaF0
aF-0.33333333333333331
aF-2.6666666666666665
aF-1
aF0
aF0
aF0.33333333333333331
aF2.6666666666666665
aF1.6666666666666667
aNaF-0.33333333333333331
aF1
aF0.33333333333333331
aF0.33333333333333331
aF0.33333333333333331
aF2.6666666666666665
aF0
aF-0.33333333333333331
aF0
aNaF0.33333333333333331
aF0
aF0.33333333333333331
aF0
aF-1
aF-3.0000000000000009
aF-4
aF-41.333333333333314
aF-106.66666666666666
aF-7
aF-320
aF-11
aF0
aI-2697
aF261.76785936155176
aS'A'
aS'A'
ag3
(S'\x07\xdd\x02\x02'
tRp76
aS'Fulham'
p77
aS'Man United'
p78
aa(lp79
F-1
aF-1.3333333333333333
aF1.3333333333333333
aF0.33333333333333331
aF0.33333333333333331
aF0
aNaF0
aF0.33333333333333331
aF0
aF1
aF1
aF-1
aF-1
aF-2.6666666666666665
aF-0.33333333333333331
aNaF0
aF-1.3333333333333333
aF-1
aF0
aF0.33333333333333331
aF-0.33333333333333331
aF0
aF0.33333333333333331
aF1
aNaF0
aF1
aF0.33333333333333331
aF-7.0000000000000009
aF0
aF-573.33333333333337
aF-61.333333333333343
aF-41.000000000000014
aF-88
aF0
aF0
aI288
aF123.28269845526712
aS'H'
aS'H'
ag3
(S'\x07\xdd\x01\x1e'
tRp80
aS'Everton'
p81
aS'West Brom'
p82
aa(lp83
F1.3333333333333333
aF3
aF0.33333333333333331
aF0.33333333333333331
aNaF1.3333333333333333
aF0.33333333333333331
aF3
aF1
aF2.6666666666666665
aF0
aF-1
aF-0.66666666666666674
aF0.33333333333333326
aNaF-0.66666666666666674
aF-0.16666666666666669
aF-1
aF0
aF0
aF-0.66666666666666674
aF0
aF0.33333333333333331
aF0
aNaF0
aF-0.16666666666666669
aF0
aF-1
aF-1.3333333333333333
aF13.333333333333332
aF5
aF67
aF68.333333333333343
aF-51.666666666666664
aF42.666666666666686
aF9
aF0
aI2607
aF290.89716690777777
aS'H'
aS'H'
ag3
(S'\x07\xdd\x01\x1e'
tRp84
aS'Man United'
p85
aS'Southampton'
p86
aa(lp87
F-0.33333333333333331
aF0
aF-1.3333333333333333
aF-0.33333333333333331
aF-0.33333333333333331
aF-0.33333333333333331
aNaF-1.3333333333333333
aF0
aF-1
aF-1.3333333333333333
aF-0.33333333333333326
aF0.66666666666666674
aF0.66666666666666674
aF0.66666666666666674
aF1
aNaF1
aF-0.33333333333333331
aF0.33333333333333331
aF1
aF-0.33333333333333331
aF0
aF-0.33333333333333331
aF-0.33333333333333331
aF-1.3333333333333333
aNaF-0.33333333333333331
aF1
aF0
aF2.333333333333333
aF0
aF-165.33333333333331
aF-77
aF-93
aF-159.99999999999997
aF-5.3333333333333339
aF0
aI-885
aF301.43442462145998
aS'D'
aS'A'
ag3
(S'\x07\xdd\x01\x15'
tRp88
aS'Southampton'
p89
aS'Everton'
p90
aa(lp91
F-1.3333333333333333
aF-1.6666666666666667
aNaF-0.33333333333333331
aNaF0
aF0
aF-1.6666666666666667
aF-1.6666666666666667
aF0
aF0.33333333333333331
aF0
aNaF1.6666666666666667
aNaF0
aF1
aF0
aF0
aF0
aF1
aF0.33333333333333331
aNaF0
aNaF0
aF-0.33333333333333331
aF0.33333333333333331
aF0.33333333333333331
aF0
aF-12.999999999999998
aF-5
aF659.99999999999989
aF225
aF117.33333333333334
aF59
aF2.333333333333333
aF0
aI-1425
aF255.76042811298186
aS'D'
aS'A'
ag3
(S'\x07\xdd\x01\x14'
tRp92
aS'Tottenham'
p93
aS'Man United'
p94
aa(lp95
F0
aNaF1.3333333333333333
aF0.33333333333333331
aNaF1
aF-1
aF2.6666666666666665
aF1.6666666666666667
aF1.6666666666666667
aF0
aNaF-1
aF1
aNaF0
aF0.33333333333333331
aF-0.33333333333333331
aF-0.33333333333333331
aF-0.33333333333333331
aF0
aNaF-0.33333333333333331
aF-1.3333333333333333
aNaF-0.33333333333333331
aF0
aF-0.33333333333333331
aF0
aF0
aF17.000000000000004
aF-6.666666666666667
aF-272
aF0
aF-129
aF78.333333333333343
aF7.0000000000000009
aF0
aI1743
aF44.466125065948304
aS'H'
aS'H'
ag3
(S'\x07\xdd\x01\r'
tRp96
aS'Man United'
p97
aS'Liverpool'
p98
aa(lp99
F0.33333333333333331
aF-0.33333333333333331
aF1.3333333333333333
aF0
aF0.33333333333333331
aF-1
aNaF1.3333333333333333
aF1
aF1
aF1
aF1.3333333333333333
aF-1
aF-1
aF-1
aF0
aNaF-0.33333333333333331
aF0.33333333333333331
aF0
aF-1.3333333333333333
aF-1
aF-0.33333333333333331
aF0.33333333333333331
aF0
aF1
aNaF-1
aF-1.3333333333333333
aF-0.33333333333333331
aF3.0000000000000009
aF0
aF-184.33333333333337
aF-78.333333333333343
aF117
aF-111.66666666666669
aF7.0000000000000009
aF0
aI455
aF210.13854728468442
aS'D'
aS'H'
ag3
(S'\x07\xdd\x01\x0c'
tRp100
aS'Everton'
p101
aS'Swansea'
p102
aa(lp103
F0
aF0.33333333333333331
aF-1
aF-0.33333333333333331
aF0
aF1
aNaF-1
aF-1
aF1
aF0
aF-1
aF0
aF2.6666666666666665
aF1
aF0.33333333333333331
aNaF0
aF1
aF0.33333333333333331
aF0
aF0
aF0.33333333333333331
aF-0.33333333333333331
aF-0.33333333333333331
aF-1.3333333333333333
aNaF1
aF0
aF-1.3333333333333333
aF7.9999999999999982
aF2.6666666666666665
aF0
aF66.666666666666657
aF-68.333333333333343
aF67
aF13.333333333333332
aF-0.33333333333333331
aI-689
aF191.98668084042177
aS'A'
aS'A'
ag3
(S'\x07\xdd\x01\x02'
tRp104
aS'Newcastle'
p105
aS'Everton'
p106
aa(lp107
F-1.3333333333333333
aF-1
aF-1
aF-0.33333333333333331
aNaNaF-0.33333333333333331
aF-2.6666666666666665
aF-1
aF-1.3333333333333333
aF1.3333333333333333
aF0.33333333333333331
aF1
aF1.6666666666666667
aNaNaF0
aF1.3333333333333333
aF1.3333333333333333
aF1.3333333333333333
aF0
aF0
aF0
aF0
aNaNaF1
aF0
aF-0.33333333333333331
aF0
aF-11
aF-2.6666666666666665
aF-560
aF-437.00000000000006
aF-69.333333333333329
aF-93.333333333333314
aF-9.3333333333333321
aF0
aI-2077
aF25.730718885093015
aS'A'
aS'A'
ag3
(S'\x07\xdd\x01\x01'
tRp108
aS'Wigan'
p109
aS'Man United'
p110
aa(lp111
NaF0
aF1
aF0
aF0.33333333333333331
aF-1
aNaF-1.6666666666666667
aF-1.6666666666666667
aF0
aNaF0
aF0.33333333333333331
aF0
aF-1
aF0
aNaF0
aF0
aF-0.33333333333333331
aNaF0
aF-1.3333333333333333
aF0
aF0
aF1
aNaF0.33333333333333331
aF0.33333333333333331
aF0.33333333333333331
aF-39.666666666666664
aF-11.666666666666666
aF-448
aF-223.99999999999997
aF106.66666666666667
aF77.333333333333314
aF-5
aF0.33333333333333331
aI-136
aF287.58493307119272
aS'A'
aS'A'
ag3
(S'\x07\xdc\x0c\x1e'
tRp112
aS'Everton'
p113
aS'Chelsea'
p114
aa(lp115
F0
aF0
aF1.3333333333333333
aF0.33333333333333331
aNaF1
aF0
aF1.6666666666666667
aF0
aF2.6666666666666665
aF-0.33333333333333331
aF-0.33333333333333331
aF-1
aF0
aNaF0
aF-1
aF0
aF0
aF-1.3333333333333333
aF0.33333333333333331
aF0.33333333333333331
aF-0.33333333333333331
aF-0.33333333333333331
aNaF-0.33333333333333331
aF0.33333333333333331
aF-0.33333333333333331
aF0
aF0
aF16
aF4
aF217
aF149.33333333333331
aF-80.000000000000014
aF128.33333333333337
aF11
aF0
aI1027
aF108.34188505012203
aS'H'
aS'H'
ag3
(S'\x07\xdc\x0c\x1d'
tRp116
aS'Man United'
p117
aS'West Brom'
p118
aa(lp119
F1.3333333333333333
aF-0.33333333333333331
aF1
aF0.33333333333333331
aF0
aNaNaF1
aF1.3333333333333333
aF0.33333333333333331
aF-1
aF1
aF-1
aF-2.6666666666666665
aF-1
aNaNaF-1.3333333333333333
aF-1.3333333333333333
aF-3
aF-0.33333333333333331
aF0
aF0
aF0.33333333333333331
aF0.33333333333333331
aNaNaF0.33333333333333331
aF0
aF1.3333333333333333
aF5.3333333333333339
aF0
aF53.333333333333371
aF58.666666666666657
aF-11.666666666666671
aF111.99999999999997
aF0
aF0.33333333333333331
aI675
aF23.975606104337857
aS'H'
aS'H'
ag3
(S'\x07\xdc\x0c\x1a'
tRp120
aS'Everton'
p121
aS'Wigan'
p122
aa(lp123
F1
aF1
aF1
aF0.33333333333333331
aNaF0
aF0
aF2.6666666666666665
aF1
aF3
aF-1.3333333333333333
aF-0.33333333333333331
aF0
aF-1.6666666666666667
aNaF0
aF0
aF0
aF-1.3333333333333333
aF-3
aF0.33333333333333331
aF0
aF-0.33333333333333331
aF0
aNaF0
aF0
aF-1.3333333333333333
aF0.33333333333333331
aF0
aF13.333333333333332
aF8.3333333333333339
aF-420.33333333333337
aF-71.999999999999972
aF-129
aF201
aF4.3333333333333321
aF0
aI1449
aF173.76634150389097
aS'H'
aS'H'
ag3
(S'\x07\xdc\x0c\x1a'
tRp124
aS'Man United'
p125
aS'Newcastle'
p126
aa(lp127
F-1.3333333333333333
aF-1
aF-1.3333333333333333
aF0
aNaF0
aF-0.33333333333333331
aF-3
aF-2.6666666666666665
aF-1
aF0.33333333333333331
aF0
aF1
aF0
aNaF-0.33333333333333331
aF2.6666666666666665
aF0.33333333333333331
aF1.3333333333333333
aF0
aF1
aF1
aF0.33333333333333331
aF0
aNaF0.33333333333333331
aF-0.33333333333333331
aF1.3333333333333333
aF0
aF0.33333333333333331
aF-25
aF-21.333333333333332
aF93.333333333333314
aF68.000000000000014
aF17.333333333333329
aF-105
aF3.0000000000000009
aF0
aI-1235
aF230.85014201971234
aS'D'
aS'A'
ag3
(S'\x07\xdc\x0c\x17'
tRp128
aS'Swansea'
p129
aS'Man United'
p130
aa(lp131
F-1
aF0.33333333333333331
aF-1
aF-0.33333333333333331
aF-0.33333333333333331
aF0
aNaF-1.3333333333333333
aF0
aF0.33333333333333331
aF1
aF0
aF0
aF1
aF2.6666666666666665
aF1.3333333333333333
aNaF1.3333333333333333
aF0.33333333333333331
aF0
aF0
aF-0.33333333333333331
aF0.33333333333333331
aF0
aF-0.33333333333333331
aF-1.3333333333333333
aNaF0
aF-1
aF-1
aF3.0000000000000009
aF0
aF23
aF0
aF42.666666666666671
aF23.666666666666686
aF5.3333333333333339
aF0
aI-200
aF293.8689905604333
aS'A'
aS'A'
ag3
(S'\x07\xdc\x0c\x16'
tRp132
aS'West Ham'
p133
aS'Everton'
p134
aa(lp135
F1.3333333333333333
aF1
aF1.3333333333333333
aF0
aNaF0
aF0.33333333333333331
aNaF2.6666666666666665
aF2.6666666666666665
aF-3
aF0
aF-1
aF1
aNaF0
aF-1
aNaF-1.3333333333333333
aF-1.3333333333333333
aF0.33333333333333331
aF-1
aF-0.33333333333333331
aF-0.33333333333333331
aNaF0
aF0
aNaF0
aF0
aF12.999999999999998
aF13.333333333333332
aF-145
aF-96
aF-155
aF-147
aF0
aF0
aI1265
aF171.74840979274185
aS'H'
aS'H'
ag3
(S'\x07\xdc\x0c\x0f'
tRp136
aS'Man United'
p137
aS'Sunderland'
p138
aa(lp139
F-1.3333333333333333
aF0.33333333333333331
aF-1
aF-0.33333333333333331
aF-0.33333333333333331
aF-0.33333333333333331
aNaF-1.3333333333333333
aF1
aF3
aF1
aF-1.3333333333333333
aF0
aF0
aF1
aF0.33333333333333331
aNaF1.3333333333333333
aF0
aF-0.33333333333333331
aF0.33333333333333331
aF1
aF0.33333333333333331
aF1
aF0
aF0
aNaF0
aF-1
aF-1.3333333333333333
aF-2.333333333333333
aF-1.3333333333333333
aF-399
aF-198.33333333333334
aF17.333333333333329
aF77.000000000000057
aF3.6666666666666661
aF0.33333333333333331
aI-147
aF72.664635257232376
aS'D'
aS'A'
ag3
(S'\x07\xdc\x0c\x0f'
tRp140
aS'Stoke'
p141
aS'Everton'
p142
aa(lp143
F1.3333333333333333
aF-1.3333333333333333
aNaF0.33333333333333331
aF0
aF-1
aNaF0
aF-3
aF0
aF0
aF1.3333333333333333
aNaF-2.6666666666666665
aF-1
aF-0.33333333333333331
aNaF0
aF0
aF-1.3333333333333333
aF-1.3333333333333333
aF0
aNaF0.33333333333333331
aF0.33333333333333331
aF1.3333333333333333
aNaF0
aF3
aF1.3333333333333333
aF-18.333333333333332
aF0
aF-368.33333333333337
aF-33.333333333333343
aF36
aF309.33333333333331
aF-2.333333333333333
aF0
aI-147
aF283.10486349992709
aS'H'
aS'H'
ag3
(S'\x07\xdc\x0c\t'
tRp144
aS'Everton'
p145
aS'Tottenham'
p146
aa(lp147
F-1
aF-1
aF1.6666666666666667
aNaNaF1.6666666666666667
aF0
aF-2.6666666666666665
aF-2.6666666666666665
aF0
aF0.33333333333333331
aF0
aF-0.33333333333333331
aNaNaF-0.33333333333333331
aF0
aF0.33333333333333331
aF0
aF-0.33333333333333331
aF0
aF1
aF0
aNaNaF0
aF0
aF0.33333333333333331
aF1.3333333333333333
aF0.33333333333333331
aF-18.333333333333332
aF-8
aF-359.66666666666669
aF-141
aF86.333333333333343
aF437
aF9
aF0
aI-207
aF6.4091066836603519
aS'A'
aS'H'
ag3
(S'\x07\xdc\x0c\t'
tRp148
aS'Man City'
p149
aS'Man United'
p150
aa(lp151
F-1
aF0.33333333333333331
aF1.6666666666666667
aNaF1
aF2.6666666666666665
aNaF-1
aF1.3333333333333333
aF3
aF0
aF-1.3333333333333333
aF-0.33333333333333331
aNaF0
aF0
aNaF0.33333333333333331
aF-0.33333333333333331
aF-0.33333333333333331
aF0.33333333333333331
aF1
aF0
aNaF-0.33333333333333331
aF-1.3333333333333333
aNaF0
aF-1
aF-1.3333333333333333
aF13.333333333333332
aF-2.6666666666666665
aF-64
aF-153
aF49
aF24.333333333333314
aF0
aF0
aI540
aF50.938602100397503
aS'D'
aS'H'
ag3
(S'\x07\xdc\x0c\x01'
tRp152
aS'Man City'
p153
aS'Everton'
p154
aa(lp155
F-1.3333333333333333
aF-1.3333333333333333
aF-1.3333333333333333
aF-0.33333333333333331
aNaF-1.3333333333333333
aF0.66666666666666674
aF-3
aF-1
aF-1
aF1
aF1
aF0.66666666666666674
aF-1.3333333333333333
aNaF0.66666666666666674
aF-0.33333333333333331
aF0
aF1
aF-0.33333333333333331
aF-0.33333333333333331
aF-0.33333333333333331
aF0
aF0
aNaF0
aF-0.33333333333333331
aF0
aF0
aF1.3333333333333333
aF0
aF0
aF-326.33333333333337
aF-207.99999999999997
aF-150.33333333333334
aF75
aF0
aF0
aI-1008
aF243.636982300981
aS'A'
aS'A'
ag3
(S'\x07\xdc\x0c\x01'
tRp156
aS'Reading'
p157
aS'Man United'
p158
aa(lp159
F1
aF-1.3333333333333333
aF0
aF1
aF0.33333333333333331
aF-1
aNaF0
aF0
aF0.33333333333333331
aF0
aF1
aF0
aF0
aF-2.6666666666666665
aF-0.33333333333333331
aNaF0
aF0.33333333333333331
aF-1.3333333333333333
aF-0.33333333333333331
aF0.33333333333333331
aF0
aF-0.33333333333333331
aF0.33333333333333331
aF1.3333333333333333
aNaF0
aF-1
aF1
aF-16
aF-7.0000000000000009
aF306.66666666666663
aF91.666666666666657
aF43
aF23
aF1.6666666666666667
aF0
aI41
aF285.11763486171071
aS'D'
aS'H'
ag3
(S'\x07\xdc\x0b\x1c'
tRp160
aS'Everton'
p161
aS'Arsenal'
p162
aa(lp163
F1.3333333333333333
aF1
aF1
aF0.33333333333333331
aNaF1
aF0.33333333333333331
aF3
aF1
aF2.6666666666666665
aF-3
aF-1.3333333333333333
aF0
aF0
aNaF-1
aF0.33333333333333331
aF-1.3333333333333333
aF0
aF-1.3333333333333333
aF0.33333333333333331
aF0.33333333333333331
aF-0.33333333333333331
aF-0.33333333333333331
aNaF0
aF-2.6666666666666665
aF-0.33333333333333331
aF-0.33333333333333331
aF0
aF9
aF-0.33333333333333331
aF184.33333333333337
aF64
aF135
aF-207.99999999999997
aF-5.3333333333333339
aF0
aI539
aF266.43730284713479
aS'H'
aS'H'
ag3
(S'\x07\xdc\x0b\x1c'
tRp164
aS'Man United'
p165
aS'West Ham'
p166
aa(lp167
F1.3333333333333333
aF0
aF1
aF1.3333333333333333
aF0
aF0.33333333333333331
aNaF0.83333333333333326
aF-1
aF1.3333333333333333
aF-1
aF0
aF0
aF-1.6666666666666667
aF-1
aF0
aNaF-0.5
aF0.33333333333333331
aF-0.33333333333333331
aF-0.33333333333333331
aF0
aF-0.33333333333333331
aF0
aF0.33333333333333331
aF-0.66666666666666674
aNaF0.33333333333333331
aF0
aF-1
aF7.0000000000000009
aF0
aF981.66666666666674
aF346.66666666666669
aF213.33333333333331
aF-71
aF4
aF0
aI204
aF299.9185476421498
aS'D'
aS'H'
ag3
(S'\x07\xdc\x0b\x18'
tRp168
aS'Everton'
p169
aS'Norwich'
p170
aa(lp171
F1
aF0.83333333333333326
aF1
aF0.33333333333333331
aNaF0.83333333333333326
aF0
aF3
aF1.3333333333333333
aF1.3333333333333333
aF-0.33333333333333331
aF-0.5
aF-1
aF-1.6666666666666667
aNaF-0.16666666666666669
aF0.33333333333333331
aF-2
aF-1
aF-2.6666666666666665
aF0
aF0.33333333333333331
aF0
aF0
aNaF0
aF-1
aF0
aF-0.33333333333333331
aF0
aF7.0000000000000009
aF0.33333333333333331
aF-429.33333333333337
aF-66.666666666666657
aF95.666666666666671
aF-264
aF11
aF0
aI713
aF258.11610071692422
aS'H'
aS'H'
ag3
(S'\x07\xdc\x0b\x18'
tRp172
aS'Man United'
p173
aS'QPR'
p174
aa(lp175
F-1.3333333333333333
aF-1.3333333333333333
aF-1
aF-0.33333333333333331
aNaF-1.3333333333333333
aF-0.33333333333333331
aF-2.5
aF-2.6666666666666665
aF-1.6666666666666667
aF1.3333333333333333
aF1.3333333333333333
aF0
aF0.66666666666666674
aNaF-0.33333333333333331
aF-0.33333333333333331
aF0.5
aF0
aF0.33333333333333331
aF0
aF0
aF0.33333333333333331
aF0
aNaF2
aF1.6666666666666667
aF0
aF1.3333333333333333
aF0
aF-20
aF-2.6666666666666665
aF-156
aF-50.666666666666671
aF25.333333333333343
aF65
aF-20
aF0
aI-608
aF258.17584532935979
aS'H'
aS'A'
ag3
(S'\x07\xdc\x0b\x11'
tRp176
aS'Norwich'
p177
aS'Man United'
p178
aa(lp179
F-1.3333333333333333
aF0
aF-1.3333333333333333
aF-1.3333333333333333
aF-0.33333333333333331
aF-0.33333333333333331
aNaF-1.3333333333333333
aF-0.33333333333333331
aF0
aF0.66666666666666674
aF-0.33333333333333326
aF0.66666666666666674
aF-0.33333333333333331
aF-0.33333333333333331
aF0
aNaF0
aF0
aF0
aF0
aF-0.33333333333333331
aF0
aF0
aF-0.33333333333333331
aF-1.3333333333333333
aNaF-0.33333333333333331
aF1.6666666666666667
aF0
aF-6.666666666666667
aF0
aF-626.99999999999989
aF-229.66666666666666
aF0
aF-207
aF-9
aF0
aI-364
aF261.44999534816731
aS'H'
aS'A'
ag3
(S'\x07\xdc\x0b\x11'
tRp180
aS'Reading'
p181
aS'Everton'
p182
aa(lp183
F-1
aF-1
aF-1.3333333333333333
aF0
aNaF-1
aF-0.33333333333333331
aF-2.6666666666666665
aF-2.6666666666666665
aF-2.6666666666666665
aF0.33333333333333331
aF0.33333333333333331
aF1
aF0
aNaF-0.33333333333333331
aF0
aF0
aF0.33333333333333331
aF0
aF0
aF0
aF0.33333333333333331
aF0
aNaF1.3333333333333333
aF1
aF1.3333333333333333
aF0.33333333333333331
aF1.3333333333333333
aF-25.666666666666668
aF-8
aF-298.66666666666663
aF-86.333333333333343
aF-9.6666666666666714
aF170.33333333333337
aF-5
aF0.33333333333333331
aI-495
aF109.52360384404703
aS'A'
aS'A'
ag3
(S'\x07\xdc\x0b\n'
tRp184
aS'Aston Villa'
p185
aS'Man United'
p186
aa(lp187
F1.3333333333333333
aF-0.33333333333333331
aF1.3333333333333333
aF1
aF0.33333333333333331
aF-1
aNaNaF0
aF0.33333333333333331
aF-2.6666666666666665
aF1.3333333333333333
aF-1
aF0
aF-2.6666666666666665
aF-0.33333333333333331
aNaNaF-0.33333333333333331
aF-0.33333333333333331
aF0
aF-1
aF-0.33333333333333331
aF-0.33333333333333331
aF0.33333333333333331
aF1.3333333333333333
aNaNaF1.6666666666666667
aF0
aF8
aF3
aF573.33333333333337
aF209.66666666666666
aF65.000000000000014
aF316.33333333333337
aF6.666666666666667
aF0.33333333333333331
aI208
aF193.56559314115574
aS'H'
aS'H'
ag3
(S'\x07\xdc\x0b\n'
tRp188
aS'Everton'
p189
aS'Sunderland'
p190
aa(lp191
F-1.3333333333333333
aF1.3333333333333333
aF-1.3333333333333333
aF-1.3333333333333333
aF-0.33333333333333331
aF2.6666666666666665
aNaF0
aF0.33333333333333331
aF1
aF-0.33333333333333331
aF-1
aF2.6666666666666665
aF1
aF2.6666666666666665
aF0
aNaF0
aF0
aF0.33333333333333331
aF3
aF-0.33333333333333331
aF0
aF0.33333333333333331
aF-0.33333333333333331
aF-1.3333333333333333
aNaF0
aF-1.6666666666666667
aF-1.3333333333333333
aF3.6666666666666661
aF-5.333333333333333
aF120
aF-29.333333333333343
aF41.000000000000014
aF-487.66666666666669
aF-32
aF-0.33333333333333331
aI-60
aF286.81183210199458
aS'D'
aS'A'
ag3
(S'\x07\xdc\x0b\x03'
tRp192
aS'Fulham'
p193
aS'Everton'
p194
aa(lp195
F1
aF0
aF1
aF0
aNaF0
aF-2.6666666666666665
aF1.6666666666666667
aF1.6666666666666667
aF1
aF-0.33333333333333331
aF-0.33333333333333331
aF0
aF1
aNaF0
aF0.33333333333333331
aF0
aF-0.33333333333333331
aF0
aF0
aF0.33333333333333331
aF-0.33333333333333331
aF-0.33333333333333331
aNaF0
aF0.33333333333333331
aF-0.33333333333333331
aF0
aF-0.33333333333333331
aF28.000000000000004
aF11.666666666666666
aF-438.66666666666663
aF-149.33333333333331
aF-245.33333333333331
aF41.333333333333314
aF13.333333333333332
aF0
aI216
aF258.51867563718656
aS'H'
aS'H'
ag3
(S'\x07\xdc\x0b\x03'
tRp196
aS'Man United'
p197
aS'Arsenal'
p198
aa(lp199
NaF-1.3333333333333333
aF-1
aF1
aNaF0
aF0
aF0
aF1.6666666666666667
aF0
aNaF3
aF-0.33333333333333331
aF-1
aNaF-0.33333333333333331
aF1
aF0
aF-0.33333333333333331
aF0
aNaF-0.33333333333333331
aF1.3333333333333333
aF0
aNaF0.33333333333333331
aF-0.33333333333333331
aF0
aF0
aF0
aF6.3333333333333357
aF3.0000000000000009
aF27
aF0
aF12.333333333333329
aF35.999999999999972
aF0
aF0
aI160
aF262.24830639062515
aS'A'
aS'H'
ag3
(S'\x07\xdc\n\x1c'
tRp200
aS'Chelsea'
p201
aS'Man United'
p202
aa(lp203
F-1.6666666666666667
aNaF1.3333333333333333
aF1.3333333333333333
aF0.33333333333333331
aF0.33333333333333331
aNaF1.3333333333333333
aF-1
aF0
aF0.33333333333333331
aNaF-1
aF0
aF-1
aF-0.33333333333333331
aNaF-0.33333333333333331
aF0
aF-0.33333333333333331
aF0
aNaF-0.33333333333333331
aF-1.3333333333333333
aF0
aF0
aNaF-1
aF1
aF0.33333333333333331
aF0
aF5.3333333333333339
aF-184
aF0
aF48.000000000000014
aF193.33333333333331
aF11.666666666666666
aF0.33333333333333331
aI144
aF0.98015325743948067
aS'D'
aS'H'
ag3
(S'\x07\xdc\n\x1c'
tRp204
aS'Everton'
p205
aS'Liverpool'
p206
aa(lp207
F-1
aF0.5
aF-1
aF-1.3333333333333333
aF-0.33333333333333331
aF0.16666666666666669
aNaF-1.3333333333333333
aF-1.3333333333333333
aF0
aF0
aF-0.83333333333333326
aF1
aF2.6666666666666665
aF1.6666666666666667
aF0.5
aNaF2
aF3
aF0.33333333333333331
aF0.33333333333333331
aF-0.33333333333333331
aF0
aF0
aF-0.33333333333333331
aF-1.3333333333333333
aNaF-0.33333333333333331
aF-0.33333333333333331
aF-1
aF-16
aF-10.666666666666666
aF-914.66666666666674
aF-360
aF-12.333333333333329
aF186.66666666666666
aF-3.6666666666666661
aF0.33333333333333331
aI-192
aF283.38430258525636
aS'D'
aS'A'
ag3
(S'\x07\xdc\n\x15'
tRp208
aS'QPR'
p209
aS'Everton'
p210
aa(lp211
F1.3333333333333333
aF1
aF1
aF0.33333333333333331
aNaF1.3333333333333333
aF-1
aF2.6666666666666665
aF1
aF1.3333333333333333
aF-1.3333333333333333
aF0
aF0
aF1
aNaF0
aF0.33333333333333331
aF-1.3333333333333333
aF0
aF-1
aF0
aF-1
aF-0.33333333333333331
aF-1.3333333333333333
aNaF-1.3333333333333333
aF0
aF0
aF-0.33333333333333331
aF-0.33333333333333331
aF14.999999999999998
aF0
aF147
aF81.666666666666671
aF42.666666666666671
aF-368.33333333333337
aF-9.3333333333333321
aF0
aI161
aF53.323400364781961
aS'H'
aS'H'
ag3
(S'\x07\xdc\n\x14'
tRp212
aS'Man United'
p213
aS'Stoke'
p214
aa(lp215
F-1
aF-1
aF-1
aF-0.33333333333333331
aNaF0
aF0
aF-2.6666666666666665
aF-1
aF0
aF1.3333333333333333
aF1.3333333333333333
aF0
aF1.6666666666666667
aNaF0
aF0
aF0
aF-0.33333333333333331
aF0
aF-0.33333333333333331
aF-0.33333333333333331
aF0.33333333333333331
aF0
aNaF0
aF0
aF1.3333333333333333
aF1.3333333333333333
aF0
aF-12.999999999999998
aF0.33333333333333331
aF-125.00000000000006
aF-53.333333333333343
aF-62.999999999999993
aF158.99999999999997
aF11
aF0
aI-63
aF173.76634150389097
aS'A'
aS'A'
ag3
(S'\x07\xdc\n\x07'
tRp216
aS'Newcastle'
p217
aS'Man United'
p218
aa(lp219
F-1.3333333333333333
aF0.33333333333333331
aF-1.3333333333333333
aF-1.3333333333333333
aF0
aNaNaF-1
aF-1.3333333333333333
aF1
aF1
aF-1.3333333333333333
aF1
aF2.6666666666666665
aF1
aNaNaF1.3333333333333333
aF3
aF0.33333333333333331
aF0.33333333333333331
aF1
aF0.33333333333333331
aF0
aF-0.33333333333333331
aNaNaF-0.33333333333333331
aF-0.33333333333333331
aF-1.3333333333333333
aF-21
aF-12
aF-980
aF-396
aF-20
aF247.99999999999997
aF11
aF0.33333333333333331
aI-153
aF23.975606104337857
aS'D'
aS'A'
ag3
(S'\x07\xdc\n\x06'
tRp220
aS'Wigan'
p221
aS'Everton'
p222
aa(lp223
F1
aF-0.33333333333333331
aF1.3333333333333333
aF1.3333333333333333
aF-0.33333333333333331
aF-1
aNaF1
aF0
aF1.6666666666666667
aF0
aF0
aF0
aF-2.6666666666666665
aF1.3333333333333333
aF-0.33333333333333331
aNaF0
aF-1.3333333333333333
aF-0.33333333333333331
aF-0.33333333333333331
aF0.33333333333333331
aF-1.3333333333333333
aF0
aF-1
aF1.3333333333333333
aNaF-1
aF1.3333333333333333
aF0
aF7.0000000000000009
aF5
aF77.000000000000057
aF39
aF69
aF176
aF-20
aF0
aI-1416
aF191.98668084042177
aS'H'
aS'H'
ag3
(S'\x07\xdc\x05\r'
tRp224
aS'Everton'
p225
aS'Newcastle'
p226
aa(lp227
F-1.3333333333333333
aF0
aF-1.3333333333333333
aF0
aNaF0
aF-1.3333333333333333
aNaF-0.33333333333333331
aF-0.33333333333333331
aF3
aF0
aF1.3333333333333333
aF-1
aNaF0
aF1.3333333333333333
aNaF0
aF-1.3333333333333333
aF-0.33333333333333331
aF0
aF0
aF0.33333333333333331
aNaF0
aF0
aNaF1
aF3
aF-9
aF-1.6666666666666667
aF-448.00000000000006
aF-212.33333333333331
aF-215
aF-105
aF-2.333333333333333
aF0.33333333333333331
aI-5371
aF171.74840979274185
aS'A'
aS'A'
ag3
(S'\x07\xdc\x05\r'
tRp228
aS'Sunderland'
p229
aS'Man United'
p230
aa(lp231
F1.3333333333333333
aF0.33333333333333331
aF1.3333333333333333
aF-0.16666666666666669
aNaF0.83333333333333326
aF1.3333333333333333
aF1.3333333333333333
aF0
aF1.3333333333333333
aF-0.5
aF0.33333333333333331
aF-0.5
aF0.83333333333333326
aNaF0.33333333333333331
aF-2
aF-0.5
aF0.33333333333333331
aF-1.3333333333333333
aF-0.16666666666666669
aF-0.66666666666666674
aF-0.16666666666666669
aF0
aNaF-0.5
aF0.33333333333333331
aF-0.16666666666666669
aF-1
aF0
aF0
aF-13.333333333333332
aF62.666666666666629
aF19
aF71.666666666666671
aF143.99999999999997
aF9
aF0
aI4953
aF230.85014201971234
aS'H'
aS'H'
ag3
(S'\x07\xdc\x05\x06'
tRp232
aS'Man United'
p233
aS'Swansea'
p234
aa(lp235
F-1
aF0
aF-1.3333333333333333
aF-1.3333333333333333
aF0.33333333333333331
aF0
aNaF0
aF-0.33333333333333331
aF0
aF1
aF1.6666666666666667
aF0
aF2.6666666666666665
aF0
aF1.3333333333333333
aNaF0
aF0.33333333333333331
aF3
aF0
aF-0.33333333333333331
aF1.3333333333333333
aF0
aF-0.33333333333333331
aF-1.3333333333333333
aNaF0
aF0
aF-3
aF-21.666666666666668
aF-7.0000000000000009
aF-121.66666666666669
aF0
aF55.999999999999993
aF-273
aF-4
aF0
aI-2128
aF109.68259618137256
aS'D'
aS'A'
ag3
(S'\x07\xdc\x05\x06'
tRp236
aS'Wolves'
p237
aS'Everton'
p238
aa(lp239
F-1.3333333333333333
aF0.33333333333333331
aF-1
aF-1.3333333333333333
aF0
aF-0.33333333333333331
aNaF-1
aF-1.3333333333333333
aF0
aF0
aF-1
aF0
aF1
aF0
aF1.3333333333333333
aNaF1.3333333333333333
aF0.33333333333333331
aF0
aF1.3333333333333333
aF0
aF0.33333333333333331
aF0.33333333333333331
aF0
aF-1
aNaF-0.33333333333333331
aF1
aF0
aF-46.666666666666664
aF-5
aF-700
aF-253.33333333333331
aF7
aF-77.333333333333314
aF0
aF0
aI-752
aF72.664635257232376
aS'D'
aS'A'
ag3
(S'\x07\xdc\x05\x01'
tRp240
aS'Stoke'
p241
aS'Everton'
p242
aa(lp243
F-1
aF0
aF1.6666666666666667
aNaNaF1.6666666666666667
aF-1
aF-1
aF2.6666666666666665
aF0
aF1.3333333333333333
aF0
aF0
aNaNaF-0.33333333333333331
aF1.3333333333333333
aF0.33333333333333331
aF-0.33333333333333331
aF-0.33333333333333331
aF-0.33333333333333331
aF0
aF-0.33333333333333331
aNaNaF0
aF-0.33333333333333331
aF0
aF-0.33333333333333331
aF0.33333333333333331
aF26.666666666666668
aF2.333333333333333
aF143.99999999999989
aF181.33333333333331
aF-45.333333333333329
aF-158.99999999999997
aF-9
aF0
aI-489
aF6.4091066836603519
aS'H'
aS'H'
ag3
(S'\x07\xdc\x04\x1e'
tRp244
aS'Man City'
p245
aS'Man United'
p246
aa(lp247
F1.3333333333333333
aF-0.33333333333333331
aF1.3333333333333333
aF1.3333333333333333
aF0
aF-1
aNaF1
aF-1
aF1
aF0.33333333333333331
aF0
aF-2.6666666666666665
aF0
aF-1.6666666666666667
aF0
aNaF0
aF0
aF-1
aF-3
aF0.33333333333333331
aF0
aF-1.3333333333333333
aF0.33333333333333331
aF1
aNaF-1
aF1
aF0
aF21.333333333333336
aF0
aF311.66666666666669
aF17.666666666666657
aF-24.999999999999993
aF199.99999999999997
aF7.0000000000000009
aF0
aI188
aF286.81183210199458
aS'H'
aS'H'
ag3
(S'\x07\xdc\x04\x1c'
tRp248
aS'Everton'
p249
aS'Fulham'
p250
aa(lp251
F0
aF0.33333333333333331
aF0
aF-1
aNaF1
aNaF0
aF0
aF2.6666666666666665
aF-0.33333333333333331
aF-1
aF-0.33333333333333331
aF0
aNaF0.33333333333333331
aNaF0
aF0.33333333333333331
aF-0.33333333333333331
aF0.33333333333333331
aF0
aF0.33333333333333331
aF0.33333333333333331
aNaF-1.3333333333333333
aNaF0
aF-0.33333333333333331
aF-0.33333333333333331
aF-9.3333333333333321
aF1.6666666666666667
aF308.99999999999989
aF137.66666666666666
aF143
aF90.666666666666686
aF3.6666666666666661
aF0
aI4515
aF44.782088140421742
aS'D'
aS'H'
ag3
(S'\x07\xdc\x04\x16'
tRp252
aS'Man United'
p253
aS'Everton'
p254
aa(lp255
F1
aF0
aF1.3333333333333333
aF0
aNaF1
aF1.3333333333333333
aF1.3333333333333333
aF1.3333333333333333
aF3
aF-0.33333333333333331
aF0
aF-3
aF-1
aNaF0.33333333333333331
aF0
aF-1.3333333333333333
aF0
aF-0.33333333333333331
aF0
aF0
aF0.33333333333333331
aF0.33333333333333331
aNaF-1.3333333333333333
aF-2.6666666666666665
aF0
aF-1.3333333333333333
aF-1.3333333333333333
aF0
aF-1
aF558.33333333333337
aF136
aF126.66666666666667
aF21
aF-3.0000000000000009
aF0
aI5016
aF109.52360384404703
aS'H'
aS'H'
ag3
(S'\x07\xdc\x04\x0f'
tRp256
aS'Man United'
p257
aS'Aston Villa'
p258
aa(lp259
F-1.3333333333333333
aF0
aF-1.3333333333333333
aF-0.33333333333333331
aNaNaF-1.3333333333333333
aF-1
aF-1.6666666666666667
aF-2.6666666666666665
aF1.3333333333333333
aF-0.33333333333333331
aF1.3333333333333333
aF2.6666666666666665
aNaNaF0.33333333333333331
aF1.3333333333333333
aF0.33333333333333331
aF0.33333333333333331
aF0
aF1
aF0
aF-0.33333333333333331
aNaNaF1
aF-0.33333333333333331
aF0
aF0.33333333333333331
aF0
aF-1
aF-741.66666666666674
aF-255.66666666666666
aF-220.99999999999997
aF0
aF9
aF0
aI-5457
aF25.730718885093015
aS'H'
aS'A'
ag3
(S'\x07\xdc\x04\x0b'
tRp260
aS'Wigan'
p261
aS'Man United'
p262
aa(lp263
F1.3333333333333333
aF-0.33333333333333331
aF1.3333333333333333
aF1
aF0
aF-1
aNaNaF1
aF1.3333333333333333
aF-2.6666666666666665
aF1
aF-1
aF0
aF0
aF-0.33333333333333331
aNaNaF0
aF0
aF0
aF0
aF-0.33333333333333331
aF-0.33333333333333331
aF0
aF1.3333333333333333
aNaNaF-1
aF-1.3333333333333333
aF0
aF-1.6666666666666667
aF125.00000000000006
aF14.333333333333343
aF-99
aF-23.666666666666686
aF7.9999999999999982
aF0
aI172
aF193.56559314115574
aS'H'
aS'H'
ag3
(S'\x07\xdc\x04\t'
tRp264
aS'Everton'
p265
aS'Sunderland'
p266
aa(lp267
F0.33333333333333326
aF-0.16666666666666669
aF1.3333333333333333
aF0.33333333333333331
aNaF2.5
aF0.83333333333333326
aF1.3333333333333333
aF1.6666666666666667
aF3
aF0
aF-0.16666666666666669
aF-1
aF-0.66666666666666674
aNaF-0.5
aF0
aF-2
aF-0.33333333333333331
aF-3
aF0.33333333333333331
aF0.33333333333333331
aF0.33333333333333331
aF0.33333333333333331
aNaF0
aF-0.16666666666666669
aF0.33333333333333331
aF0
aF0
aF9.3333333333333321
aF5
aF708.33333333333337
aF413.00000000000006
aF135.66666666666666
aF63
aF-18.333333333333332
aF-0.33333333333333331
aI4992
aF258.11610071692422
aS'H'
aS'H'
ag3
(S'\x07\xdc\x04\x08'
tRp268
aS'Man United'
p269
aS'QPR'
p270
aa(lp271
F-1.3333333333333333
aF0
aF-1.3333333333333333
aF-1.3333333333333333
aF0
aF-0.33333333333333331
aNaF0.16666666666666669
aF-1
aF0
aF0.16666666666666669
aF-1.3333333333333333
aF0.66666666666666674
aF0.66666666666666674
aF0.66666666666666674
aF0
aNaF0.5
aF1
aF0
aF0.5
aF0.66666666666666674
aF0
aF0
aF-0.33333333333333331
aF0.66666666666666674
aNaF-1.3333333333333333
aF0
aF0
aF-2.333333333333333
aF1
aF135.00000000000006
aF71.666666666666671
aF48.333333333333329
aF176
aF4.3333333333333321
aF0.33333333333333331
aI-328
aF299.9185476421498
aS'D'
aS'A'
ag3
(S'\x07\xdc\x04\x07'
tRp272
aS'Norwich'
p273
aS'Everton'
p274
aa(lp275
F-1.3333333333333333
aF0
aF-1.3333333333333333
aF-0.33333333333333331
aNaF-2.6666666666666665
aF-1.3333333333333333
aF-1
aF-1.6666666666666667
aF-1.6666666666666667
aF3
aF0
aF3
aF2.6666666666666665
aNaF0.33333333333333331
aF1.3333333333333333
aF1.3333333333333333
aF0.33333333333333331
aF0
aF-0.33333333333333331
aF0
aF-0.33333333333333331
aF-0.33333333333333331
aNaF0.33333333333333331
aF0
aF-0.33333333333333331
aF0
aF0.33333333333333331
aF-12.999999999999998
aF-8
aF-759
aF-469.33333333333337
aF-86.333333333333343
aF-137.66666666666666
aF4
aF0
aI-4545
aF32.262740424616027
aS'A'
aS'A'
ag3
(S'\x07\xdc\x04\x02'
tRp276
aS'Blackburn'
p277
aS'Man United'
p278
aa(lp279
F1
aF-0.33333333333333331
aF1.3333333333333333
aF1.3333333333333333
aF0
aF0.33333333333333331
aNaF-1
aF0.33333333333333331
aF1
aF-1
aF0
aF-1
aF-1
aF-1.6666666666666667
aF-0.33333333333333331
aNaF0
aF0
aF0
aF0
aF0.33333333333333331
aF-0.33333333333333331
aF-0.33333333333333331
aF0.33333333333333331
aF0
aNaF1
aF-0.33333333333333331
aF-0.33333333333333331
aF0
aF0
aF-18.333333333333314
aF16
aF-93
aF-101.66666666666669
aF12.999999999999998
aF-0.33333333333333331
aI304
aF123.28269845526712
aS'H'
aS'H'
ag3
(S'\x07\xdc\x03\x1f'
tRp280
aS'Everton'
p281
aS'West Brom'
p282
aa(lp283
F1.3333333333333333
aF0
aF1.3333333333333333
aF0.33333333333333331
aNaF1.6666666666666667
aF1.3333333333333333
aF1
aF2.6666666666666665
aF2.6666666666666665
aF-0.33333333333333331
aF-1
aF-3
aF0
aNaF0
aF-1.3333333333333333
aF0
aF-1.3333333333333333
aF-1.3333333333333333
aF-1
aF0.33333333333333331
aF0.33333333333333331
aF-1
aNaF-0.33333333333333331
aF0
aF-1
aF0
aF0
aF25
aF7.0000000000000009
aF122.66666666666663
aF98.333333333333314
aF11.666666666666671
aF0
aF2.6666666666666665
aF0
aI3604
aF261.76785936155176
aS'H'
aS'H'
ag3
(S'\x07\xdc\x03\x1a'
tRp284
aS'Man United'
p285
aS'Fulham'
p286
aa(lp287
F-1.3333333333333333
aF0
aF-1.3333333333333333
aF-0.83333333333333326
aF0
aF0.16666666666666669
aNaF-0.33333333333333331
aF2.6666666666666665
aF0.33333333333333331
aF0.16666666666666669
aF-1.3333333333333333
aF-0.33333333333333331
aF0.16666666666666669
aF-0.33333333333333326
aF0
aNaF0.5
aF-1.3333333333333333
aF0
aF0.5
aF0.66666666666666674
aF1
aF0
aF-0.33333333333333331
aF-0.83333333333333326
aNaF-0.83333333333333326
aF0
aF-1
aF11.666666666666666
aF1
aF153
aF100
aF35
aF-143.99999999999997
aF-20
aF0.33333333333333331
aI152
aF210.13854728468442
aS'A'
aS'H'
ag3
(S'\x07\xdc\x03\x18'
tRp288
aS'Swansea'
p289
aS'Everton'
p290
aa(lp291
F0
aF-0.33333333333333331
aF1
aF1
aF-0.33333333333333331
aF-1
aNaF-1
aF-2.6666666666666665
aF1.6666666666666667
aF0
aF1
aF0
aF0
aF0
aF0
aNaF0
aF0.33333333333333331
aF0
aF0
aF0
aF-0.33333333333333331
aF-0.33333333333333331
aF0.33333333333333331
aF1
aNaF1
aF0.33333333333333331
aF-0.33333333333333331
aF-25.666666666666668
aF-4
aF-740
aF-306.66666666666669
aF-16
aF0
aF9.3333333333333321
aF0
aI-1335
aF285.11763486171071
aS'A'
aS'A'
ag3
(S'\x07\xdc\x03\x15'
tRp292
aS'Everton'
p293
aS'Arsenal'
p294
aa(lp295
F-1
aF-0.33333333333333331
aF-1.3333333333333333
aF0
aNaF-2.6666666666666665
aF-1.3333333333333333
aF1.6666666666666667
aF-3
aF-1.3333333333333333
aF1.3333333333333333
aF2.6666666666666665
aF0.33333333333333331
aF1
aNaF1.3333333333333333
aF1.3333333333333333
aF0
aF1.3333333333333333
aF3
aF-0.33333333333333331
aF-0.33333333333333331
aF1
aF-0.33333333333333331
aNaF0
aF0
aF-0.33333333333333331
aF0.33333333333333331
aF-0.33333333333333331
aF-14.999999999999998
aF-3
aF-176
aF-91.000000000000014
aF-18.666666666666664
aF34.666666666666657
aF0
aF0
aI-4005
aF97.639104184963045
aS'A'
aS'A'
ag3
(S'\x07\xdc\x03\x12'
tRp296
aS'Wolves'
p297
aS'Man United'
p298
aa(lp299
F1.6666666666666667
aNaF-1.3333333333333333
aF-1
aF0.33333333333333331
aF-0.33333333333333331
aNaF0
aF-1.3333333333333333
aF0
aF-0.33333333333333331
aNaF1
aF0
aF-1
aF0
aNaF0.33333333333333331
aF3
aF0.33333333333333331
aF0
aNaF0.33333333333333331
aF0.33333333333333331
aF0
aF1.6666666666666667
aNaF-1
aF-0.33333333333333331
aF-1.6666666666666667
aF-4
aF-2.6666666666666665
aF57
aF-21.333333333333329
aF69.333333333333329
aF-104.00000000000006
aF-4
aF0
aI152
aF0.98015325743948067
aS'H'
aS'H'
ag3
(S'\x07\xdc\x03\r'
tRp300
aS'Liverpool'
p301
aS'Everton'
p302
aa(lp303
F1
aF0
aF1.3333333333333333
aF0.33333333333333331
aNaF3
aF0
aF0
aF0
aF1.6666666666666667
aF-1.3333333333333333
aF-1
aF-1.3333333333333333
aF-1
aNaF-1.3333333333333333
aF-0.33333333333333331
aF0
aF0
aF0
aF0.33333333333333331
aF0.33333333333333331
aF0
aF0
aNaF-0.33333333333333331
aF0.33333333333333331
aF0
aF0
aF-0.33333333333333331
aF-17.000000000000004
aF-1.6666666666666667
aF-1061.6666666666667
aF-400
aF-239.99999999999997
aF74.666666666666657
aF3.0000000000000009
aF0
aI2871
aF108.34188505012203
aS'H'
aS'H'
ag3
(S'\x07\xdc\x03\x0b'
tRp304
aS'Man United'
p305
aS'West Brom'
p306
aa(lp307
F1.3333333333333333
aF-1
aNaF1.3333333333333333
aF0
aF-1
aNaF-1
aF0
aF1.3333333333333333
aF0
aF0.33333333333333331
aNaF-2.6666666666666665
aF0
aF0
aNaF0
aF-1.3333333333333333
aF-1.3333333333333333
aF-1.3333333333333333
aF0
aNaF0
aF0
aF1
aNaF1
aF1.3333333333333333
aF0
aF-16
aF-10.666666666666666
aF-420
aF-76.000000000000014
aF-37.333333333333329
aF189
aF-10.666666666666666
aF-0.33333333333333331
aI-1653
aF283.10486349992709
aS'H'
aS'A'
ag3
(S'\x07\xdc\x03\n'
tRp308
aS'Everton'
p309
aS'Tottenham'
p310
aa(lp311
F-1.3333333333333333
aF1
aNaF-0.33333333333333331
aNaF-1.6666666666666667
aF-1
aF0
aF-1
aF0
aF0.33333333333333331
aF-0.33333333333333331
aNaF2.6666666666666665
aNaF0
aF0.33333333333333331
aF0
aF0.33333333333333331
aF0
aF1
aF0
aNaF-0.33333333333333331
aNaF0.33333333333333331
aF0
aF0
aF0
aF0
aF0
aF11.666666666666666
aF-23.666666666666686
aF-88.000000000000014
aF-8.9999999999999929
aF-63
aF11
aF0.33333333333333331
aI-912
aF255.76042811298186
aS'A'
aS'A'
ag3
(S'\x07\xdc\x03\x04'
tRp312
aS'Tottenham'
p313
aS'Man United'
p314
aa(lp315
F-0.33333333333333326
aF-0.33333333333333331
aF-0.33333333333333331
aF-1.3333333333333333
aF0
aF0.16666666666666669
aNaF-0.33333333333333331
aF-1.3333333333333333
aF0.33333333333333331
aF-0.33333333333333331
aF0.66666666666666674
aF0.66666666666666674
aF0.66666666666666674
aF-0.33333333333333326
aF0.5
aNaF1
aF3
aF1
aF0
aF-0.33333333333333331
aF-0.33333333333333331
aF0
aF-0.33333333333333331
aF-1.3333333333333333
aNaF-1.3333333333333333
aF-0.33333333333333331
aF-1.3333333333333333
aF-2.333333333333333
aF0
aF765.33333333333337
aF205.33333333333331
aF99
aF22.333333333333314
aF1
aF1.3333333333333333
aI-648
aF283.38430258525636
aS'D'
aS'A'
ag3
(S'\x07\xdc\x03\x03'
tRp316
aS'QPR'
p317
aS'Everton'
p318
aa(lp319
F-1.3333333333333333
aF-0.33333333333333331
aF-1.3333333333333333
aF-0.33333333333333331
aNaF-3
aF-1.3333333333333333
aF-0.83333333333333326
aF0
aF0
aF0.5
aF-0.33333333333333331
aF1
aF0.66666666666666674
aNaF0
aF0
aF0.5
aF0.33333333333333331
aF-0.33333333333333331
aF0.16666666666666669
aF0.66666666666666674
aF-0.33333333333333331
aF-0.33333333333333331
aNaF1
aF0.66666666666666674
aF-0.33333333333333331
aF-0.33333333333333331
aF1
aF-7.9999999999999982
aF-0.33333333333333331
aF469.33333333333337
aF15.666666666666657
aF-12.333333333333329
aF0
aF0
aF0
aI-2139
aF258.17584532935979
aS'A'
aS'A'
ag3
(S'\x07\xdc\x02\x1a'
tRp320
aS'Norwich'
p321
aS'Man United'
p322
aa(lp323
NaF0.33333333333333331
aF0
aF0
aF0
aF-1
aNaF-2.6666666666666665
aF0.33333333333333331
aF0
aNaF-2.6666666666666665
aF0.33333333333333331
aF0
aF0
aF0
aNaF0
aF0
aF0.33333333333333331
aNaF0.33333333333333331
aF-1
aF0
aF0
aF1
aNaF1.3333333333333333
aF-1.6666666666666667
aF-1
aF-2.333333333333333
aF0
aF-780
aF-195
aF-220.99999999999997
aF-48
aF-5.3333333333333339
aF-0.33333333333333331
aI-949
aF287.58493307119272
aS'H'
aS'A'
ag3
(S'\x07\xdc\x02\x0b'
tRp324
aS'Everton'
p325
aS'Chelsea'
p326
aa(lp327
F-1.6666666666666667
aNaF1.3333333333333333
aF0
aNaF3
aF1
aF1
aF1
aF1
aF0
aNaF-1.3333333333333333
aF0
aNaF0
aF-0.33333333333333331
aF0
aF-0.33333333333333331
aF-1
aF0.33333333333333331
aNaF0
aF0
aNaF-3
aF0
aF-1
aF0
aF0
aF11
aF1
aF-415.00000000000006
aF-179.99999999999997
aF48.000000000000014
aF18.333333333333314
aF-11
aF0
aI1504
aF44.466125065948304
aS'H'
aS'H'
ag3
(S'\x07\xdc\x02\x0b'
tRp328
aS'Man United'
p329
aS'Liverpool'
p330
aa(lp331
NaF-0.33333333333333331
aF-1
aF1
aNaF-1.6666666666666667
aF-1
aF1.6666666666666667
aF-2.6666666666666665
aF-1
aNaF2.6666666666666665
aF0
aF0
aNaF0
aF0.33333333333333331
aF0
aF0
aF0
aNaF-0.33333333333333331
aF1
aF-0.33333333333333331
aNaF0.33333333333333331
aF0
aF-0.33333333333333331
aF1.3333333333333333
aF0.33333333333333331
aF-14.999999999999998
aF-2.6666666666666665
aF693
aF133.33333333333331
aF91.666666666666657
aF179.99999999999997
aF9
aF0.33333333333333331
aI-1152
aF262.24830639062515
aS'D'
aS'H'
ag3
(S'\x07\xdc\x02\x05'
tRp332
aS'Chelsea'
p333
aS'Man United'
p334
aa(lp335
F-0.33333333333333331
aF-0.33333333333333331
aF-0.33333333333333331
aF-1.3333333333333333
aF0
aNaNaF0
aF-0.33333333333333331
aF-0.33333333333333331
aF1
aF-0.33333333333333331
aF1
aF2.6666666666666665
aF1.6666666666666667
aNaNaF1.3333333333333333
aF3
aF1
aF0
aF2.6666666666666665
aF0
aF0
aF-0.33333333333333331
aNaNaF-1.3333333333333333
aF-1.3333333333333333
aF0
aF-1.6666666666666667
aF-0.33333333333333331
aF-94.999999999999972
aF-20
aF-32
aF0
aF6.666666666666667
aF0
aI-616
aF23.975606104337857
aS'D'
aS'A'
ag3
(S'\x07\xdc\x02\x04'
tRp336
aS'Wigan'
p337
aS'Everton'
p338
aa(lp339
F0
aF0
aF-2.6666666666666665
aNaF-0.33333333333333331
aF-2.6666666666666665
aNaF0
aF-3
aF0
aF-1
aF0
aF0.33333333333333331
aNaF1
aF0
aNaF-1.3333333333333333
aF0.33333333333333331
aF0
aF0.33333333333333331
aF0
aF0.33333333333333331
aNaF0
aF1.3333333333333333
aNaF1.3333333333333333
aF1.3333333333333333
aF0
aF-14.999999999999998
aF-2.6666666666666665
aF-45.333333333333314
aF-91.000000000000014
aF-72.333333333333329
aF152.00000000000006
aF0
aF-0.33333333333333331
aI-2240
aF50.938602100397503
aS'H'
aS'A'
ag3
(S'\x07\xdc\x01\x1f'
tRp340
aS'Everton'
p341
aS'Man City'
p342
aa(lp343
F1.3333333333333333
aF0
aF1
aF0.33333333333333331
aNaF3
aF0
aF1
aF1
aF1
aF0
aF0
aF-1.3333333333333333
aF-1
aNaF-0.33333333333333331
aF-0.33333333333333331
aF-1.3333333333333333
aF0
aF0
aF-1.3333333333333333
aF0
aF0.33333333333333331
aF0
aNaF-1.3333333333333333
aF0.33333333333333331
aF0.33333333333333331
aF-0.33333333333333331
aF-0.33333333333333331
aF5.3333333333333339
aF0
aF238.33333333333331
aF117.00000000000001
aF106.33333333333334
aF0
aF0
aF0
aI1701
aF53.323400364781961
aS'H'
aS'H'
ag3
(S'\x07\xdc\x01\x1f'
tRp344
aS'Man United'
p345
aS'Stoke'
p346
aa(lp347
F0
aF-0.33333333333333331
aF-1.3333333333333333
aF0
aNaF-1.6666666666666667
aF1.6666666666666667
aF-1
aF0
aF0
aF0
aF0
aF1.3333333333333333
aF0
aNaF0
aF0
aF0
aF0
aF-0.33333333333333331
aF0
aF1
aF0
aF0
aNaF0.33333333333333331
aF-0.33333333333333331
aF1
aF0
aF0.33333333333333331
aF-3.0000000000000009
aF1
aF-130.66666666666663
aF-35.999999999999972
aF-245
aF41.333333333333314
aF-2.333333333333333
aF0.33333333333333331
aI-1008
aF258.51867563718656
aS'A'
aS'A'
ag3
(S'\x07\xdc\x01\x16'
tRp348
aS'Arsenal'
p349
aS'Man United'
p350
aa(lp351
F0.33333333333333331
aF0
aF0.33333333333333331
aF1.3333333333333333
aF-0.33333333333333331
aF0
aNaF0.33333333333333331
aF-1.3333333333333333
aF0
aF-2.6666666666666665
aF0
aF-2.6666666666666665
aF-1
aF1
aF-0.33333333333333331
aNaF-1.3333333333333333
aF1
aF0
aF0.33333333333333331
aF0
aF0.33333333333333331
aF-0.33333333333333331
aF0
aF1
aNaF1
aF0.33333333333333331
aF0
aF-14.999999999999998
aF-1.3333333333333333
aF-245.66666666666669
aF-128.33333333333334
aF7.6666666666666643
aF21.666666666666686
aF0
aF-0.33333333333333331
aI336
aF45.045617758342772
aS'D'
aS'H'
ag3
(S'\x07\xdc\x01\x15'
tRp352
aS'Everton'
p353
aS'Blackburn'
p354
aa(lp355
F0
aF0
aF-0.33333333333333331
aF-1
aF0
aF1
aNaF-0.33333333333333331
aF0
aF-0.33333333333333331
aF-0.33333333333333331
aF1
aF2.6666666666666665
aF1
aF0
aF0
aNaF1.3333333333333333
aF-1
aF2.6666666666666665
aF1
aF-0.33333333333333331
aF-0.33333333333333331
aF0
aF0
aF-1
aNaF-1
aF0.33333333333333331
aF-0.33333333333333331
aF1.6666666666666667
aF0.33333333333333331
aF-44
aF-10.333333333333329
aF91.000000000000014
aF85.333333333333314
aF-9
aF0
aI-47
aF126.23065894863628
aS'D'
aS'H'
ag3
(S'\x07\xdc\x01\x0e'
tRp356
aS'Aston Villa'
p357
aS'Everton'
p358
aa(lp359
F1.3333333333333333
aF0.33333333333333331
aF1
aF0.33333333333333331
aNaF2.6666666666666665
aF0
aF1.3333333333333333
aF0
aF0
aF-2.6666666666666665
aF-2.6666666666666665
aF-1.3333333333333333
aF-2.6666666666666665
aNaF0
aF-0.33333333333333331
aF-3
aF1
aF0
aF0
aF0.33333333333333331
aF0.33333333333333331
aF0.33333333333333331
aNaF-1.3333333333333333
aF0.33333333333333331
aF0.33333333333333331
aF-0.33333333333333331
aF0
aF13.333333333333332
aF1
aF520
aF141
aF224
aF88
aF6.666666666666667
aF0
aI1769
aF20.773967847011392
aS'H'
aS'H'
ag3
(S'\x07\xdc\x01\x0e'
tRp360
aS'Man United'
p361
aS'Bolton'
p362
aa(lp363
F-0.33333333333333331
aF2.6666666666666665
aNaF-1.3333333333333333
aF0
aF0
aNaF1
aF1
aF1
aF0
aF-0.33333333333333331
aNaF1
aF0
aF0.33333333333333331
aNaF0
aF-0.33333333333333331
aF-0.33333333333333331
aF1
aF-0.33333333333333331
aNaF0.33333333333333331
aF0
aF-1
aNaF-1
aF0
aF0
aF2.333333333333333
aF0.33333333333333331
aF525.66666666666674
aF205.33333333333331
aF172.33333333333331
aF-223.99999999999997
aF-2.333333333333333
aF0
aI1188
aF283.10486349992709
aS'H'
aS'H'
ag3
(S'\x07\xdc\x01\x0b'
tRp364
aS'Tottenham'
p365
aS'Everton'
p366
aa(lp367
F0.33333333333333331
aF0.33333333333333331
aF0
aF1.3333333333333333
aF0
aF0
aNaF0.33333333333333331
aF1
aF0
aF-2.6666666666666665
aF-2.6666666666666665
aF-1
aF-2.6666666666666665
aF0
aF0
aNaF-3
aF-0.33333333333333331
aF-1
aF0.33333333333333331
aF0.33333333333333331
aF0.33333333333333331
aF0
aF0
aF0
aNaF1.3333333333333333
aF0
aF0.33333333333333331
aF0
aF-3
aF199.99999999999997
aF0
aF76.000000000000014
aF57
aF5
aF0
aI407
aF32.567376549038251
aS'A'
aS'H'
ag3
(S'\x07\xdc\x01\x04'
tRp368
aS'Everton'
p369
aS'Bolton'
p370
aa(lp371
F-1.3333333333333333
aF0
aF-1.3333333333333333
aF-0.33333333333333331
aNaF-1.6666666666666667
aF0
aF0
aF-1
aF-3
aF0
aF1
aF0.33333333333333331
aF2.6666666666666665
aNaF0
aF0.33333333333333331
aF0
aF1
aF1.3333333333333333
aF1.3333333333333333
aF-0.33333333333333331
aF1
aF-0.33333333333333331
aNaF0.33333333333333331
aF-0.33333333333333331
aF0
aF0
aF0.33333333333333331
aF-39.666666666666664
aF-7.0000000000000009
aF-601.66666666666674
aF-251.99999999999997
aF-391
aF59
aF0
aF0
aI-1125
aF173.76634150389097
aS'H'
aS'A'
ag3
(S'\x07\xdc\x01\x04'
tRp372
aS'Newcastle'
p373
aS'Man United'
p374
aa(lp375
F-0.33333333333333331
aF0
aF-0.33333333333333331
aF-1.3333333333333333
aF0
aF-0.33333333333333331
aNaF1
aF1
aF-0.33333333333333331
aF2.6666666666666665
aF1
aF0
aF1
aF0
aF1.3333333333333333
aNaF0
aF0
aF1
aF-0.33333333333333331
aF-0.33333333333333331
aF1
aF0.33333333333333331
aF0
aF-1
aNaF-1
aF-1
aF0
aF5.3333333333333339
aF1.3333333333333333
aF-448.00000000000006
aF-95.666666666666671
aF-204.99999999999997
aF-59
aF-2.6666666666666665
aF0
aI43
aF123.28269845526712
aS'A'
aS'H'
ag3
(S'\x07\xdc\x01\x01'
tRp376
aS'West Brom'
p377
aS'Everton'
p378
aa(lp379
F1.3333333333333333
aF0
aF1.3333333333333333
aF0.33333333333333331
aNaF2.6666666666666665
aF1
aF1.3333333333333333
aF3
aF1.3333333333333333
aF-2.6666666666666665
aF0
aF-3
aF-1
aNaF-0.33333333333333331
aF-1.3333333333333333
aF-1.3333333333333333
aF-1.3333333333333333
aF-1.3333333333333333
aF0
aF0
aF0.33333333333333331
aF0
aNaF-0.33333333333333331
aF0.33333333333333331
aF0
aF-0.33333333333333331
aF0
aF45
aF11.666666666666666
aF326.33333333333337
aF186.66666666666666
aF266.66666666666669
aF-98.333333333333314
aF0
aF0
aI1904
aF32.262740424616027
aS'A'
aS'H'
ag3
(S'\x07\xdb\x0c\x1f'
tRp380
aS'Man United'
p381
aS'Blackburn'
p382
aa(lp383
F1.3333333333333333
aF0.33333333333333331
aF1
aF0.33333333333333331
aNaNaF1.3333333333333333
aF1
aF2.6666666666666665
aF0
aF-1
aF0.33333333333333331
aF-0.33333333333333331
aF-2.6666666666666665
aNaNaF-0.33333333333333331
aF-0.33333333333333331
aF0
aF-0.33333333333333331
aF-0.33333333333333331
aF-2.6666666666666665
aF0
aF0.33333333333333331
aNaNaF-1
aF0
aF-1.3333333333333333
aF0.33333333333333331
aF37.333333333333336
aF11.666666666666666
aF552
aF441
aF176
aF-158.99999999999997
aF1.6666666666666667
aF0
aI1568
aF25.730718885093015
aS'H'
aS'H'
ag3
(S'\x07\xdb\x0c\x1a'
tRp384
aS'Man United'
p385
aS'Wigan'
p386
aa(lp387
F0
aF-0.33333333333333331
aF-0.33333333333333331
aF-1
aF0
aF0
aNaNaF1
aF0
aF1
aF0
aF1
aF0
aF0
aF0.33333333333333331
aNaNaF0
aF-1
aF-0.33333333333333331
aF1
aF0
aF0.33333333333333331
aF0
aF-1
aNaNaF-0.33333333333333331
aF0.33333333333333331
aF7.0000000000000009
aF0.33333333333333331
aF-31.666666666666629
aF118.99999999999997
aF-92
aF-20.333333333333314
aF6.666666666666667
aF0
aI-111
aF193.56559314115574
aS'D'
aS'H'
ag3
(S'\x07\xdb\x0c\x1a'
tRp388
aS'Sunderland'
p389
aS'Everton'
p390
aa(lp391
F0.33333333333333331
aF0.33333333333333331
aF0.33333333333333331
aF1.3333333333333333
aF0
aF0.33333333333333331
aNaF1.3333333333333333
aF-0.33333333333333331
aF0.33333333333333331
aF-0.66666666666666674
aF0.33333333333333331
aF0.33333333333333331
aF-0.66666666666666674
aF0.33333333333333326
aF0
aNaF0
aF1
aF0
aF0.33333333333333331
aF-0.66666666666666674
aF0.33333333333333331
aF0
aF0.33333333333333331
aF0.33333333333333326
aNaF-0.66666666666666674
aF0
aF-1
aF-5
aF-0.33333333333333331
aF425.00000000000006
aF77
aF202.66666666666666
aF115
aF0
aF-0.33333333333333331
aI-35
aF210.13854728468442
aS'H'
aS'H'
ag3
(S'\x07\xdb\x0c\x15'
tRp392
aS'Everton'
p393
aS'Swansea'
p394
aa(lp395
F-1.3333333333333333
aF0
aF-1.3333333333333333
aF-0.33333333333333331
aNaF-1.6666666666666667
aF-1.3333333333333333
aF-1
aF-1.6666666666666667
aF-1.6666666666666667
aF1
aF1
aF3
aF0
aNaF0
aF1.3333333333333333
aF0
aF0.33333333333333331
aF0.33333333333333331
aF0.33333333333333331
aF-0.33333333333333331
aF-0.33333333333333331
aF1
aNaF0.33333333333333331
aF0
aF1
aF0
aF0
aF-13.333333333333332
aF-4
aF-165
aF-128
aF-101.33333333333334
aF0
aF5.3333333333333339
aF0
aI-1197
aF261.76785936155176
aS'A'
aS'A'
ag3
(S'\x07\xdb\x0c\x15'
tRp396
aS'Fulham'
p397
aS'Man United'
p398
aa(lp399
F-0.33333333333333326
aF-0.33333333333333331
aF-1.3333333333333333
aF-0.33333333333333331
aNaF-3
aF-0.33333333333333326
aF-1.3333333333333333
aF-1.3333333333333333
aF-2.6666666666666665
aF-0.33333333333333331
aF0.66666666666666674
aF1
aF0.66666666666666674
aNaF1
aF0
aF0
aF1.3333333333333333
aF0.33333333333333331
aF0
aF-0.33333333333333331
aF-0.33333333333333331
aF-0.33333333333333331
aNaF0
aF-0.33333333333333331
aF-0.33333333333333331
aF0
aF0.33333333333333331
aF-10.666666666666666
aF-2.6666666666666665
aF-682.33333333333326
aF-398.66666666666669
aF-144
aF-179.66666666666669
aF-1.3333333333333333
aF0
aI-1040
aF258.11610071692422
aS'A'
aS'A'
ag3
(S'\x07\xdb\x0c\x12'
tRp400
aS'QPR'
p401
aS'Man United'
p402
aa(lp403
F0.33333333333333331
aF0.33333333333333331
aF0.33333333333333331
aF1.3333333333333333
aF0
aF0.33333333333333331
aNaF0.33333333333333326
aF-1
aF0.33333333333333331
aF-0.66666666666666674
aF0.33333333333333331
aF0.33333333333333331
aF-0.66666666666666674
aF0.33333333333333326
aF0
aNaF0
aF1
aF0
aF0.33333333333333331
aF-0.66666666666666674
aF0.33333333333333331
aF0
aF0.33333333333333331
aF0.33333333333333326
aNaF0.33333333333333331
aF0
aF-0.33333333333333331
aF-14.999999999999998
aF-1.3333333333333333
aF45.333333333333314
aF-26.666666666666671
aF11.666666666666671
aF161
aF-5.3333333333333339
aF0
aI-105
aF299.9185476421498
aS'D'
aS'H'
ag3
(S'\x07\xdb\x0c\x11'
tRp404
aS'Everton'
p405
aS'Norwich'
p406
aa(lp407
F1
aF-0.33333333333333331
aF-0.33333333333333331
aF-1
aF0.33333333333333331
aF1
aNaF-1
aF0
aF0
aF0
aF0
aF1
aF-0.33333333333333331
aF0
aF0
aNaF0
aF-0.33333333333333331
aF-0.33333333333333331
aF-0.33333333333333331
aF1
aF0
aF1.3333333333333333
aF-0.33333333333333331
aF-1
aNaF1
aF0.33333333333333331
aF0.33333333333333331
aF11
aF2.6666666666666665
aF484.99999999999989
aF189
aF15.666666666666657
aF-181.33333333333331
aF1.6666666666666667
aF0
aI420
aF285.11763486171071
aS'H'
aS'H'
ag3
(S'\x07\xdb\x0c\n'
tRp408
aS'Arsenal'
p409
aS'Everton'
p410
aa(lp411
F1
aF0
aF1.3333333333333333
aF0
aNaF2.6666666666666665
aF1.3333333333333333
aF-1.6666666666666667
aF1
aF0.33333333333333331
aF-1
aF-1
aF-1.3333333333333333
aF-1
aNaF-1.3333333333333333
aF-1.3333333333333333
aF0
aF-1.3333333333333333
aF-2.6666666666666665
aF0
aF0.33333333333333331
aF0
aF0.33333333333333331
aNaF0
aF0
aF0.33333333333333331
aF0.33333333333333331
aF0.33333333333333331
aF0
aF1
aF511
aF152
aF67.666666666666657
aF-21.666666666666686
aF-10.666666666666666
aF0
aI893
aF97.639104184963045
aS'H'
aS'H'
ag3
(S'\x07\xdb\x0c\n'
tRp412
aS'Man United'
p413
aS'Wolves'
p414
aa(lp415
F0.33333333333333331
aF-1
aF0.33333333333333331
aF1.3333333333333333
aF0
aF0.33333333333333331
aNaF1
aF1
aF0.33333333333333331
aF0
aF0
aF-2.6666666666666665
aF0
aF0
aF-0.33333333333333331
aNaF-1.3333333333333333
aF-1
aF-1.6666666666666667
aF-1
aF0.33333333333333331
aF0.33333333333333331
aF-1.3333333333333333
aF0
aF0
aNaF0.33333333333333331
aF0
aF0
aF0
aF0
aF260.00000000000006
aF172.33333333333331
aF10.333333333333329
aF75
aF0
aF0
aI31
aF72.664635257232376
aS'A'
aS'H'
ag3
(S'\x07\xdb\x0c\x04'
tRp416
aS'Everton'
p417
aS'Stoke'
p418
aa(lp419
F-1.3333333333333333
aF0
aF-1.3333333333333333
aF0
aNaF-1.6666666666666667
aF-1
aF-1.3333333333333333
aF-1
aF0
aF0
aF1
aF3
aF1
aNaF0
aF0
aF1.3333333333333333
aF0.33333333333333331
aF0.33333333333333331
aF1.3333333333333333
aF-0.33333333333333331
aF-0.33333333333333331
aF-0.33333333333333331
aNaF0.33333333333333331
aF1
aF0
aF0
aF-0.33333333333333331
aF0
aF-1
aF-641.66666666666663
aF-239.99999999999997
aF-45.333333333333329
aF120
aF14.999999999999998
aF0
aI-644
aF109.52360384404703
aS'A'
aS'A'
ag3
(S'\x07\xdb\x0c\x03'
tRp420
aS'Aston Villa'
p421
aS'Man United'
p422
aa(lp423
F-0.33333333333333331
aF-0.33333333333333331
aF0
aF-1.3333333333333333
aF0
aF0
aNaF-1.3333333333333333
aF0
aF0
aF2.6666666666666665
aF2.6666666666666665
aF1
aF2.6666666666666665
aF0
aF0
aNaF3
aF0
aF0
aF-0.33333333333333331
aF-0.33333333333333331
aF-0.33333333333333331
aF0
aF0
aF0
aNaF-0.33333333333333331
aF0
aF0
aF13.333333333333332
aF1.6666666666666667
aF-243
aF-17
aF35
aF-128.33333333333337
aF-11
aF0.33333333333333331
aI-88
aF32.567376549038251
aS'A'
aS'A'
ag3
(S'\x07\xdb\x0b\x1a'
tRp424
aS'Bolton'
p425
aS'Everton'
p426
aa(lp427
F1.3333333333333333
aF-0.16666666666666669
aF1.3333333333333333
aF0.33333333333333331
aNaF1.6666666666666667
aF0
aF0
aF1.6666666666666667
aF0
aF0.33333333333333331
aF-0.16666666666666669
aF-0.33333333333333331
aF-2.6666666666666665
aNaF0
aF-0.33333333333333331
aF0
aF-0.33333333333333331
aF0
aF-2
aF0.33333333333333331
aF-1
aF0.33333333333333331
aNaF-0.33333333333333331
aF0.33333333333333331
aF0
aF0
aF0
aF-9
aF-2.333333333333333
aF182.99999999999997
aF86.333333333333343
aF-21
aF-186.66666666666666
aF-2.6666666666666665
aF0
aI216
aF173.76634150389097
aS'D'
aS'H'
ag3
(S'\x07\xdb\x0b\x1a'
tRp428
aS'Man United'
p429
aS'Newcastle'
p430
aa(lp431
F0
aF0
aF0.33333333333333331
aF1
aF-0.33333333333333331
aF0
aNaF-1.6666666666666667
aF0
aF0.33333333333333331
aF-1
aF-1
aF-1
aF-1
aF0
aF-1.3333333333333333
aNaF0
aF1
aF-1.6666666666666667
aF0.33333333333333331
aF0.33333333333333331
aF0
aF0
aF0.33333333333333331
aF1.3333333333333333
aNaF0.33333333333333331
aF-0.33333333333333331
aF0
aF-6.666666666666667
aF1
aF28.333333333333371
aF-51
aF-75
aF108.33333333333331
aF7.9999999999999982
aF0
aI-21
aF109.68259618137256
aS'H'
aS'H'
ag3
(S'\x07\xdb\x0b\x13'
tRp432
aS'Everton'
p433
aS'Wolves'
p434
aa(lp435
F-1.3333333333333333
aF-0.33333333333333331
aF-1.3333333333333333
aF-0.33333333333333331
aNaF-3
aF-1.3333333333333333
aF-1.3333333333333333
aF-1
aF2.6666666666666665
aF0.66666666666666674
aF-0.33333333333333331
aF0
aF0.66666666666666674
aNaF0
aF0
aF0
aF-0.33333333333333331
aF0
aF0
aF0.66666666666666674
aF-0.33333333333333331
aF-0.33333333333333331
aNaF1
aF-0.33333333333333331
aF0.66666666666666674
aF1.3333333333333333
aF-1.3333333333333333
aF5.3333333333333339
aF0
aF289.66666666666669
aF103.99999999999997
aF177.66666666666669
aF-71.999999999999972
aF0
aF-0.33333333333333331
aI-507
aF230.85014201971234
aS'A'
aS'A'
ag3
(S'\x07\xdb\x0b\x13'
tRp436
aS'Swansea'
p437
aS'Man United'
p438
aa(lp439
F1
aF0.33333333333333331
aF1
aF0
aNaF2.6666666666666665
aF1.3333333333333333
aNaF0
aF1
aF-1
aF0
aF-0.33333333333333331
aF0
aNaF0
aF-1.3333333333333333
aNaF0
aF-1
aF0
aF-1
aF0
aF0
aNaF-1.3333333333333333
aF0
aNaF0
aF0
aF-5.3333333333333339
aF-1
aF-226.66666666666669
aF-65.000000000000014
aF-67.666666666666657
aF-148.00000000000006
aF0
aF0.33333333333333331
aI429
aF171.74840979274185
aS'H'
aS'H'
ag3
(S'\x07\xdb\x0b\x05'
tRp440
aS'Man United'
p441
aS'Sunderland'
p442
aa(lp443
F-0.33333333333333331
aF0.16666666666666669
aF-0.33333333333333331
aF-1.3333333333333333
aF0
aF1
aNaF0
aF1
aF1
aF-0.33333333333333331
aF0.16666666666666669
aF0
aF1.6666666666666667
aF-0.83333333333333326
aF0
aNaF0
aF-1.3333333333333333
aF-1.3333333333333333
aF1.6666666666666667
aF-0.33333333333333331
aF1
aF0
aF0.16666666666666669
aF-1
aNaF0
aF0.33333333333333331
aF0.33333333333333331
aF6.666666666666667
aF1
aF-161
aF-56.000000000000014
aF49
aF21
aF-3.6666666666666661
aF0
aI384
aF191.98668084042177
aS'H'
aS'H'
ag3
(S'\x07\xdb\x0b\x05'
tRp444
aS'Newcastle'
p445
aS'Everton'
p446
aa(lp447
F-1
aF0
aF-1
aF1
aNaF-2.6666666666666665
aNaF0
aF0
aF1
aF0
aF0
aF0.33333333333333331
aF0
aNaF0
aNaF0
aF1
aF0.33333333333333331
aF0.33333333333333331
aF0
aF0
aF-0.33333333333333331
aNaF1.3333333333333333
aNaF0
aF-0.33333333333333331
aF-1.3333333333333333
aF0
aF0.33333333333333331
aF-165.66666666666669
aF-48.000000000000014
aF-112.00000000000001
aF-23
aF-16
aF0
aI-300
aF44.782088140421742
aS'A'
aS'A'
ag3
(S'\x07\xdb\n\x1d'
tRp448
aS'Everton'
p449
aS'Man United'
p450
aa(lp451
F-0.33333333333333331
aF-0.33333333333333331
aF-0.33333333333333331
aF-1.3333333333333333
aF-0.33333333333333331
aF1
aNaF-1
aF0.33333333333333331
aF0.33333333333333331
aF1
aF1
aF2.6666666666666665
aF0
aF1
aF0
aNaF0
aF-2.6666666666666665
aF-3
aF0
aF0
aF-0.33333333333333331
aF1.3333333333333333
aF0
aF-1
aNaF1
aF0.33333333333333331
aF1.3333333333333333
aF11.666666666666666
aF3
aF299.00000000000006
aF128.33333333333334
aF-31.666666666666668
aF0
aF5.6666666666666679
aF-0.33333333333333331
aI0
aF286.81183210199458
aS'A'
aS'H'
ag3
(S'\x07\xdb\n\x17'
tRp452
aS'Fulham'
p453
aS'Everton'
p454
aa(lp455
F0
aF0
aF0
aNaNaF0
aF0
aF1
aF-2.6666666666666665
aF1.6666666666666667
aF0
aF0
aF0
aNaNaF0
aF-1
aF-0.33333333333333331
aF0
aF0
aF0
aF0
aF0
aNaNaF0
aF0.33333333333333331
aF0
aF1.3333333333333333
aF-0.33333333333333331
aF-28.000000000000004
aF0
aF-368
aF-153
aF50.666666666666671
aF-186.66666666666666
aF2.333333333333333
aF0
aI-84
aF6.4091066836603519
aS'A'
aS'H'
ag3
(S'\x07\xdb\n\x17'
tRp456
aS'Man United'
p457
aS'Man City'
p458
aa(lp459
NaF0
aF0
aF-1
aF0
aF2.6666666666666665
aNaF0
aF1
aF1.3333333333333333
aNaF1
aF0
aF1
aF1
aF0
aNaF0.33333333333333331
aF-1
aF-1.3333333333333333
aNaF-0.33333333333333331
aF0
aF0
aF-0.33333333333333331
aF-1.3333333333333333
aNaF-0.33333333333333331
aF0
aF0
aF30.333333333333336
aF11.666666666666666
aF613.33333333333326
aF203.66666666666669
aF20
aF-106.66666666666669
aF0
aF0
aI207
aF287.58493307119272
aS'H'
aS'H'
ag3
(S'\x07\xdb\n\x0f'
tRp460
aS'Chelsea'
p461
aS'Everton'
p462
aa(lp463
F0
aNaF-1.3333333333333333
aF-1
aNaF-3
aF0
aF-1
aF0
aF1
aF0
aNaF3
aF0.33333333333333331
aNaF0.33333333333333331
aF0
aF0
aF0.33333333333333331
aF0.33333333333333331
aF0
aNaF-0.33333333333333331
aF0
aNaF1.3333333333333333
aF0
aF1
aF-0.33333333333333331
aF-1.3333333333333333
aF-6.666666666666667
aF-4
aF-202.66666666666669
aF-112.00000000000001
aF-65.000000000000014
aF186.66666666666666
aF18.333333333333332
aF1.3333333333333333
aI-192
aF44.466125065948304
aS'D'
aS'A'
ag3
(S'\x07\xdb\n\x0f'
tRp464
aS'Liverpool'
p465
aS'Man United'
p466
aa(lp467
F1.3333333333333333
aF1.3333333333333333
aF1.3333333333333333
aF1.3333333333333333
aNaF3
aF0.33333333333333331
aF0.33333333333333326
aF0
aF2
aF-0.66666666666666674
aF0.33333333333333331
aF0
aF0
aNaF0
aF0.33333333333333331
aF0
aF-0.33333333333333331
aF0
aF0
aF0
aF0.33333333333333331
aF0.33333333333333331
aNaF-1
aF0.33333333333333331
aF0.33333333333333331
aF0.33333333333333331
aF0
aF21.666666666666668
aF13.333333333333332
aF-25.666666666666686
aF100.33333333333334
aF24
aF-72
aF-4
aF0
aI192
aF258.17584532935979
aS'H'
aS'H'
ag3
(S'\x07\xdb\n\x01'
tRp468
aS'Man United'
p469
aS'Norwich'
p470
aa(lp471
NaF0
aF0
aF2.6666666666666665
aF-1
aF-2.6666666666666665
aNaF0
aF0
aF1
aNaF-1
aF0
aF-1.3333333333333333
aF0
aF0
aNaF-0.33333333333333331
aF0
aF-0.33333333333333331
aNaF0.33333333333333331
aF0
aF0
aF0.33333333333333331
aF1.3333333333333333
aNaF0.33333333333333331
aF0
aF0
aF-5.3333333333333339
aF-1.3333333333333333
aF-401.33333333333337
aF-141
aF245.33333333333331
aF-202.66666666666669
aF-19.000000000000004
aF0.33333333333333331
aI-2440
aF287.58493307119272
aS'H'
aS'A'
ag3
(S'\x07\xdb\x05\x16'
tRp472
aS'Everton'
p473
aS'Chelsea'
p474
aa(lp475
F0.33333333333333331
aF-0.66666666666666674
aF0.83333333333333326
aF1.3333333333333333
aNaF2.5
aF0.33333333333333331
aF0.83333333333333326
aF0
aF3
aF-0.66666666666666674
aF0.33333333333333331
aF0
aF-2
aNaF-0.5
aF-0.16666666666666669
aF-0.5
aF0.33333333333333331
aF-0.33333333333333331
aF0
aF0
aF-0.16666666666666669
aF0.33333333333333331
aNaF0
aF-0.16666666666666669
aF0.33333333333333331
aF-1
aF-1.3333333333333333
aF-5.3333333333333339
aF-1.6666666666666667
aF-69
aF-26.666666666666671
aF45.333333333333329
aF-207
aF3.0000000000000009
aF0
aI4408
aF62.705499461458714
aS'H'
aS'H'
ag3
(S'\x07\xdb\x05\x16'
tRp476
aS'Man United'
p477
aS'Blackpool'
p478
aa(lp479
F-0.33333333333333331
aF-1
aF-1.3333333333333333
aF-1.3333333333333333
aNaF-1.6666666666666667
aF0
aF-1.3333333333333333
aF-1
aF0
aF0
aF1
aF3
aF1.3333333333333333
aNaF0.33333333333333331
aF1
aF0.33333333333333331
aF0
aF0
aF0.33333333333333331
aF0
aF-0.33333333333333331
aF0
aNaF0
aF-0.33333333333333331
aF1
aF0.33333333333333331
aF0
aF-1.6666666666666667
aF0
aF-218.66666666666669
aF-135
aF-192
aF151.66666666666669
aF-6.666666666666667
aF0
aI-4255
aF32.262740424616027
aS'D'
aS'A'
ag3
(S'\x07\xdb\x05\x0e'
tRp480
aS'Blackburn'
p481
aS'Man United'
p482
aa(lp483
F-0.33333333333333331
aF0.16666666666666669
aF-0.33333333333333331
aF-3
aF-0.33333333333333331
aF-0.33333333333333331
aNaF0.66666666666666674
aF0
aF1
aF2
aF0.16666666666666669
aF-0.33333333333333331
aF2
aF0.16666666666666669
aF0.5
aNaF0
aF0
aF0
aF-1.3333333333333333
aF-0.33333333333333331
aF1.6666666666666667
aF0
aF0.16666666666666669
aF-0.83333333333333326
aNaF-0.33333333333333331
aF0
aF-0.33333333333333331
aF5.3333333333333339
aF0.33333333333333331
aF233.33333333333331
aF17.333333333333329
aF-112.00000000000001
aF-124
aF-12.999999999999998
aF0.33333333333333331
aI-752
aF123.28269845526712
aS'H'
aS'H'
ag3
(S'\x07\xdb\x05\x0e'
tRp484
aS'West Brom'
p485
aS'Everton'
p486
aa(lp487
NaF1
aF1
aF1
aNaF0
aF0.33333333333333331
aF0
aF-2.6666666666666665
aF1.6666666666666667
aNaF-1
aF-0.33333333333333331
aF-1.3333333333333333
aNaF0
aF0
aF-0.33333333333333331
aF0.33333333333333331
aF0
aNaF0
aF0
aF0.33333333333333331
aNaF0
aF-1
aF0.33333333333333331
aF0.33333333333333331
aF-0.33333333333333331
aF-21
aF-5.333333333333333
aF33
aF-18.333333333333314
aF117.33333333333334
aF0
aF6.666666666666667
aF0
aI429
aF262.24830639062515
aS'H'
aS'H'
ag3
(S'\x07\xdb\x05\x08'
tRp488
aS'Man United'
p489
aS'Chelsea'
p490
aa(lp491
F-1
aF0
aF0.33333333333333331
aNaF0.33333333333333331
aF-2.6666666666666665
aNaF1
aF-1
aF1
aF-0.33333333333333331
aF0
aF-1
aNaF-1
aF0
aNaF-0.33333333333333331
aF0
aF-1.3333333333333333
aF1.3333333333333333
aF0
aF0
aNaF0
aF1.3333333333333333
aNaF0
aF0.33333333333333331
aF0.33333333333333331
aF0
aF-1.3333333333333333
aF-379.66666666666663
aF-90.666666666666657
aF35
aF-20.333333333333314
aF0
aF0
aI-1540
aF50.938602100397503
aS'H'
aS'A'
ag3
(S'\x07\xdb\x05\x07'
tRp492
aS'Everton'
p493
aS'Man City'
p494
aa(lp495
F0.33333333333333331
aF-1
aF-1.3333333333333333
aF-1
aNaF-2.6666666666666665
aF1
aF-1
aF-1.3333333333333333
aF-0.33333333333333331
aF-1.6666666666666667
aF-0.33333333333333331
aF1.3333333333333333
aF0
aNaF0.33333333333333331
aF-0.33333333333333331
aF0
aF0.33333333333333331
aF-0.33333333333333331
aF0
aF1.3333333333333333
aF0
aF1
aNaF0.33333333333333331
aF0
aF1
aF1
aF2.6666666666666665
aF5.3333333333333339
aF1.6666666666666667
aF-420.33333333333337
aF-179.99999999999997
aF-52.999999999999972
aF192.00000000000006
aF18.333333333333332
aF0
aI-1233
aF258.51867563718656
aS'H'
aS'H'
ag3
(S'\x07\xdb\x05\x01'
tRp496
aS'Arsenal'
p497
aS'Man United'
p498
aa(lp499
F-0.33333333333333331
aF0
aF0
aF-3
aF-0.33333333333333331
aNaNaF-1.3333333333333333
aF-1
aF-1
aF3
aF-0.33333333333333331
aF0
aF3
aF2.6666666666666665
aNaNaF0.33333333333333331
aF1
aF0
aF-1.3333333333333333
aF1
aF0
aF0
aF-0.33333333333333331
aNaNaF1
aF0
aF0.33333333333333331
aF0
aF-1.6666666666666667
aF0
aF35
aF-55.999999999999993
aF21.666666666666686
aF3.6666666666666661
aF0
aI-1053
aF23.975606104337857
aS'D'
aS'A'
ag3
(S'\x07\xdb\x04\x1e'
tRp500
aS'Wigan'
p501
aS'Everton'
p502
aa(lp503
F-0.33333333333333331
aF1
aF1
aF-1.6666666666666667
aNaF1.6666666666666667
aNaF0
aF0
aF1.6666666666666667
aF3
aF0
aF-0.33333333333333331
aF0
aNaF0
aNaF0
aF0
aF-0.33333333333333331
aF-1.3333333333333333
aF-0.33333333333333331
aF0
aF0.33333333333333331
aNaF-0.33333333333333331
aNaF0
aF0
aF0
aF-4.3333333333333321
aF-4
aF368
aF146.99999999999997
aF173.33333333333331
aF-111.66666666666669
aF-6.666666666666667
aF0
aI2691
aF44.782088140421742
aS'H'
aS'H'
ag3
(S'\x07\xdb\x04\x17'
tRp504
aS'Man United'
p505
aS'Everton'
p506
aa(lp507
F0
aF-0.33333333333333326
aF-1.3333333333333333
aF-1.3333333333333333
aNaF-2.5
aF0.16666666666666669
aF-0.83333333333333326
aF-2.6666666666666665
aF0
aF-3
aF-0.33333333333333331
aF0.5
aF2
aNaF0
aF0.16666666666666669
aF0
aF1.3333333333333333
aF-1
aF1
aF0
aF0.16666666666666669
aF-0.33333333333333331
aNaF0.5
aF-0.33333333333333331
aF0.16666666666666669
aF0
aF0.33333333333333331
aF-11
aF0
aF-311.66666666666669
aF-54.999999999999972
aF-366.66666666666669
aF201
aF20
aF-0.33333333333333331
aI-3240
aF173.76634150389097
aS'D'
aS'A'
ag3
(S'\x07\xdb\x04\x13'
tRp508
aS'Newcastle'
p509
aS'Man United'
p510
aa(lp511
F0.33333333333333331
aF0
aF0.33333333333333331
aF3
aF0.33333333333333331
aF0
aNaF1.3333333333333333
aF1.3333333333333333
aF0.33333333333333331
aF-1.3333333333333333
aF-1
aF-2.6666666666666665
aF-1.3333333333333333
aF-1
aF-0.33333333333333331
aNaF-0.33333333333333331
aF0
aF-1.3333333333333333
aF1
aF0.33333333333333331
aF0.33333333333333331
aF-0.33333333333333331
aF0
aF0.33333333333333331
aNaF-1
aF-2.6666666666666665
aF1
aF13.333333333333332
aF8
aF-198.33333333333337
aF143
aF-25.333333333333343
aF202.66666666666669
aF3.6666666666666661
aF-0.33333333333333331
aI711
aF45.045617758342772
aS'H'
aS'H'
ag3
(S'\x07\xdb\x04\x10'
tRp512
aS'Everton'
p513
aS'Blackburn'
p514
aa(lp515
F0
aF1
aF1.3333333333333333
aF1.3333333333333333
aNaF1.6666666666666667
aF0.33333333333333331
aF1
aF0
aF3
aF1.6666666666666667
aF0
aF-3
aF-1.3333333333333333
aNaF0
aF-1
aF0
aF0
aF-0.33333333333333331
aF-0.33333333333333331
aF-0.33333333333333331
aF0.33333333333333331
aF0
aNaF-0.33333333333333331
aF0
aF-1
aF0
aF-1.3333333333333333
aF-4.3333333333333321
aF-3
aF112
aF-69.333333333333314
aF233.33333333333331
aF-394.66666666666669
aF3.0000000000000009
aF0.33333333333333331
aI2912
aF261.76785936155176
aS'H'
aS'H'
ag3
(S'\x07\xdb\x04\t'
tRp516
aS'Man United'
p517
aS'Fulham'
p518
aa(lp519
F0
aF0
aF0
aF-2.6666666666666665
aF0
aF-1.3333333333333333
aNaF0
aF0
aF1
aF1.3333333333333333
aF0
aF0
aF1.3333333333333333
aF1
aF3
aNaF0.33333333333333331
aF0.33333333333333331
aF-1.3333333333333333
aF-1.3333333333333333
aF0
aF0
aF0
aF-0.33333333333333331
aF-0.33333333333333331
aNaF-0.33333333333333331
aF-1
aF0.33333333333333331
aF0
aF0
aF-351.00000000000006
aF-192
aF-81.666666666666671
aF75
aF0
aF0
aI-657
aF109.68259618137256
aS'A'
aS'H'
ag3
(S'\x07\xdb\x04\t'
tRp520
aS'Wolves'
p521
aS'Everton'
p522
aa(lp523
F0.33333333333333331
aF0
aF0.33333333333333331
aF2.6666666666666665
aF0.33333333333333331
aF0
aNaF1.3333333333333333
aF1
aF1.3333333333333333
aF-0.33333333333333331
aF-1
aF-1
aF-1.3333333333333333
aF0
aF-0.33333333333333331
aNaF-1.3333333333333333
aF-1.3333333333333333
aF-1.3333333333333333
aF0
aF0.33333333333333331
aF0
aF0
aF-1
aF0.33333333333333331
aNaF0
aF0.33333333333333331
aF0
aF-3.6666666666666661
aF5
aF224.00000000000006
aF173.33333333333331
aF-43
aF156.33333333333331
aF13.333333333333332
aF0
aI511
aF126.23065894863628
aS'D'
aS'H'
ag3
(S'\x07\xdb\x04\x02'
tRp524
aS'Everton'
p525
aS'Aston Villa'
p526
aa(lp527
F0
aF-1
aF-1
aF-1.3333333333333333
aNaF-1.6666666666666667
aF-0.33333333333333331
aF-1
aF1
aF1
aF-1.6666666666666667
aF1
aF0.33333333333333331
aF1.3333333333333333
aNaF0.33333333333333331
aF-0.33333333333333331
aF0.33333333333333331
aF-1.3333333333333333
aF-1
aF0.33333333333333331
aF0
aF0
aF0
aNaF0
aF2.6666666666666665
aF0
aF0.33333333333333331
aF0
aF9
aF5
aF135.00000000000006
aF64
aF-33
aF-44
aF-3.0000000000000009
aF-1.3333333333333333
aI-2945
aF266.43730284713479
aS'A'
aS'A'
ag3
(S'\x07\xdb\x04\x02'
tRp528
aS'West Ham'
p529
aS'Man United'
p530
aa(lp531
F0.33333333333333331
aF0
aF0.33333333333333331
aF3
aF0
aF0
aNaF1
aF1
aF1.3333333333333333
aF-1.3333333333333333
aF0
aF-2.6666666666666665
aF-1.3333333333333333
aF0
aF0
aNaF0
aF0
aF-0.33333333333333331
aF1
aF0
aF0.33333333333333331
aF-0.33333333333333331
aF0
aF0
aNaF-1
aF-1
aF-1
aF3.0000000000000009
aF8
aF255.00000000000006
aF69.333333333333314
aF31
aF-45.333333333333314
aF-3.6666666666666661
aF0
aI144
aF286.81183210199458
aS'H'
aS'H'
ag3
(S'\x07\xdb\x03\x13'
tRp532
aS'Everton'
p533
aS'Fulham'
p534
aa(lp535
F0
aF1.3333333333333333
aF1
aF1.3333333333333333
aNaF2.6666666666666665
aF0
aF1.3333333333333333
aF-1
aF3
aF0
aF-2.6666666666666665
aF-1.3333333333333333
aF-1.3333333333333333
aNaF0
aF0
aF-3
aF1.3333333333333333
aF-1.3333333333333333
aF0
aF0
aF0.33333333333333331
aF0
aNaF-1.3333333333333333
aF0
aF0.33333333333333331
aF-0.33333333333333331
aF-0.33333333333333331
aF0
aF-1.6666666666666667
aF-135.00000000000006
aF-15.666666666666657
aF-74.666666666666657
aF-189.00000000000006
aF-9.3333333333333321
aF0.33333333333333331
aI2000
aF20.773967847011392
aS'H'
aS'H'
ag3
(S'\x07\xdb\x03\x13'
tRp536
aS'Man United'
p537
aS'Bolton'
p538
aa(lp539
F0
aF0.33333333333333331
aF0.33333333333333331
aF3
aF0.33333333333333331
aF0
aNaF1
aF1
aF0
aF-0.33333333333333331
aF0.33333333333333331
aF0
aF-0.33333333333333331
aF0
aF0
aNaF-0.33333333333333331
aF-1
aF-0.33333333333333331
aF1
aF-2.6666666666666665
aF-1
aF-1.3333333333333333
aF-1
aF0
aNaF0
aF0
aF0.33333333333333331
aF4
aF5.333333333333333
aF207
aF90.666666666666657
aF-17.333333333333329
aF24.333333333333314
aF-3.0000000000000009
aF0
aI396
aF129.89172947786224
aS'D'
aS'H'
ag3
(S'\x07\xdb\x03\t'
tRp540
aS'Everton'
p541
aS'Birmingham'
p542
aa(lp543
F1.3333333333333333
aNaF-1
aF-1.3333333333333333
aNaF-3
aF0
aF-1
aF-1
aF1
aF-2.6666666666666665
aNaF1.3333333333333333
aF0.33333333333333331
aNaF0.33333333333333331
aF0
aF0.33333333333333331
aF0
aF-1.3333333333333333
aF0
aNaF-0.33333333333333331
aF1
aNaF1.3333333333333333
aF0
aF0
aF0.33333333333333331
aF0.33333333333333331
aF-13.333333333333332
aF-2.6666666666666665
aF-115
aF-65.000000000000014
aF87
aF-272.00000000000006
aF-5.3333333333333339
aF-0.33333333333333331
aI-2079
aF44.466125065948304
aS'H'
aS'A'
ag3
(S'\x07\xdb\x03\x06'
tRp544
aS'Liverpool'
p545
aS'Man United'
p546
aa(lp547
F-0.33333333333333331
aF0.66666666666666674
aF-0.33333333333333331
aF-3
aF-0.33333333333333331
aF-0.83333333333333326
aNaF-0.83333333333333326
aF-1
aF0
aF0
aF-0.33333333333333331
aF0.16666666666666669
aF2
aF0.66666666666666674
aF0
aNaF0
aF-0.33333333333333331
aF-1.3333333333333333
aF-0.33333333333333326
aF-0.33333333333333331
aF0.16666666666666669
aF0
aF-0.33333333333333331
aF0.16666666666666669
aNaF0.16666666666666669
aF1.3333333333333333
aF2.6666666666666665
aF-13.333333333333332
aF-1.6666666666666667
aF-392.00000000000006
aF-160
aF37.000000000000014
aF21
aF12
aF0.33333333333333331
aI207
aF191.98668084042177
aS'A'
aS'H'
ag3
(S'\x07\xdb\x03\x05'
tRp548
aS'Newcastle'
p549
aS'Everton'
p550
aa(lp551
NaF-1
aF-1
aF-1.3333333333333333
aNaF-1.6666666666666667
aF-0.33333333333333331
aF0
aF-1
aF-1
aNaF1
aF0.33333333333333331
aF3
aNaF0.33333333333333331
aF0
aF0.33333333333333331
aF0
aF0
aNaF0
aF0
aF-0.33333333333333331
aNaF0
aF1
aF-0.33333333333333331
aF0.33333333333333331
aF0.33333333333333331
aF-11
aF-1.6666666666666667
aF614.33333333333326
aF81.666666666666657
aF20
aF-115
aF-3.0000000000000009
aF0
aI-1575
aF262.24830639062515
aS'H'
aS'H'
ag3
(S'\x07\xdb\x03\x01'
tRp552
aS'Chelsea'
p553
aS'Man United'
p554
aa(lp555
F0
aF0
aF0
aF2.6666666666666665
aF0.33333333333333331
aF1.3333333333333333
aNaNaF0.33333333333333331
aF0
aF-1.3333333333333333
aF0
aF0
aF-0.33333333333333331
aF-1
aF-0.33333333333333331
aNaNaF-1.6666666666666667
aF-0.33333333333333331
aF1.3333333333333333
aF0
aF0
aF-0.33333333333333331
aF0
aF-1
aNaNaF0
aF0.33333333333333331
aF3.6666666666666661
aF-4
aF111.66666666666669
aF58.666666666666657
aF121.33333333333334
aF-121.66666666666669
aF-3.6666666666666661
aF0
aI-469
aF193.56559314115574
aS'H'
aS'H'
ag3
(S'\x07\xdb\x02\x1a'
tRp556
aS'Everton'
p557
aS'Sunderland'
p558
aa(lp559
F0.33333333333333331
aF-1
aF-1
aF-1.3333333333333333
aNaNaF-0.33333333333333331
aF-1
aF-1
aF0
aF-0.66666666666666674
aF-0.33333333333333331
aF1.3333333333333333
aF1.3333333333333333
aNaNaF1
aF0
aF-0.33333333333333331
aF0
aF0
aF1.3333333333333333
aF-0.33333333333333331
aF0
aNaNaF0
aF1
aF1.3333333333333333
aF0
aF4.3333333333333321
aF-2.333333333333333
aF-316.33333333333337
aF-106.66666666666667
aF-9.6666666666666714
aF192.00000000000006
aF21.666666666666668
aF0
aI-2520
aF25.730718885093015
aS'A'
aS'A'
ag3
(S'\x07\xdb\x02\x1a'
tRp560
aS'Wigan'
p561
aS'Man United'
p562
aa(lp563
F-0.33333333333333331
aF-0.33333333333333331
aF0
aF-3
aF-0.33333333333333331
aF-1
aNaF-0.33333333333333331
aF0
aF0.33333333333333331
aF3
aF2.6666666666666665
aF1
aF1.3333333333333333
aF1
aF0
aNaF3
aF1
aF-1
aF-1.3333333333333333
aF-0.33333333333333331
aF-0.33333333333333331
aF0.33333333333333331
aF0
aF1
aNaF-1.3333333333333333
aF-0.33333333333333331
aF0
aF-20
aF-1.3333333333333333
aF-140
aF-105.00000000000001
aF-141
aF85.333333333333314
aF-6.666666666666667
aF0
aI189
aF32.567376549038251
aS'H'
aS'A'
ag3
(S'\x07\xdb\x02\r'
tRp564
aS'Bolton'
p565
aS'Everton'
p566
aa(lp567
F-3
aF1
aF1.3333333333333333
aNaNaF1.6666666666666667
aF0.33333333333333331
aF1
aF1
aF3
aF2
aF0.33333333333333331
aF-1.3333333333333333
aNaNaF0
aF-2.6666666666666665
aF-0.33333333333333331
aF0
aF-0.33333333333333331
aF0
aF-1.3333333333333333
aF0
aNaNaF-0.33333333333333331
aF0.33333333333333331
aF0
aF-0.33333333333333331
aF-1.3333333333333333
aF7.9999999999999982
aF-5.3333333333333339
aF0
aF-21
aF-100.33333333333334
aF-189
aF0
aF0
aI515
aF6.4091066836603519
aS'H'
aS'H'
ag3
(S'\x07\xdb\x02\x0c'
tRp568
aS'Man United'
p569
aS'Man City'
p570
aa(lp571
F0.33333333333333331
aF-1.6666666666666667
aF0.33333333333333331
aF3
aF0.33333333333333331
aF0.33333333333333326
aNaF-0.16666666666666669
aF0
aF0
aF-1
aF0.33333333333333331
aF0.33333333333333331
aF-2
aF-0.66666666666666674
aF0
aNaF-0.5
aF-2.6666666666666665
aF-1.3333333333333333
aF1.3333333333333333
aF0.33333333333333331
aF0.33333333333333331
aF0
aF0.33333333333333331
aF0.33333333333333331
aNaF1.3333333333333333
aF1.3333333333333333
aF1.3333333333333333
aF3.0000000000000009
aF-2.6666666666666665
aF-132.99999999999997
aF-45.333333333333329
aF-17
aF165.66666666666669
aF9
aF0
aI-55
aF41.055532975309589
aS'H'
aS'H'
ag3
(S'\x07\xdb\x02\x05'
tRp572
aS'Everton'
p573
aS'Blackpool'
p574
aa(lp575
F0.33333333333333331
aF-1
aF0
aF-1
aNaF-3
aF-0.33333333333333331
aF0
aF-3
aF-1
aF-0.66666666666666674
aF0
aF0.33333333333333331
aF1.3333333333333333
aNaF3
aF-0.33333333333333331
aF0.33333333333333331
aF3
aF1.3333333333333333
aF0
aF0.33333333333333331
aF-0.33333333333333331
aF-0.33333333333333331
aNaF0
aF2.6666666666666665
aF-0.33333333333333331
aF0
aF-0.33333333333333331
aF-37.333333333333336
aF-8
aF-780
aF-277.66666666666669
aF-76.000000000000014
aF-49
aF1.6666666666666667
aF0
aI-2475
aF97.639104184963045
aS'H'
aS'A'
ag3
(S'\x07\xdb\x02\x05'
tRp576
aS'Wolves'
p577
aS'Man United'
p578
aa(lp579
F0
aF1
aF0
aF-2.6666666666666665
aF-0.33333333333333331
aF-1
aNaF0
aF1
aF1.3333333333333333
aF1.3333333333333333
aF-0.33333333333333331
aF1
aF0
aF2.6666666666666665
aF0.33333333333333331
aNaF0.33333333333333331
aF0
aF-0.33333333333333331
aF-1.3333333333333333
aF0
aF-0.33333333333333331
aF1.3333333333333333
aF-0.33333333333333331
aF0
aNaF-1
aF-1
aF-1
aF0
aF2.6666666666666665
aF475
aF255.66666666666666
aF47
aF-440.00000000000006
aF-1.3333333333333333
aF0.33333333333333331
aI1387
aF285.11763486171071
aS'H'
aS'H'
ag3
(S'\x07\xdb\x02\x01'
tRp580
aS'Arsenal'
p581
aS'Everton'
p582
aa(lp583
F0
aF1
aF1.3333333333333333
aF1
aNaF1.6666666666666667
aF0
aF1.3333333333333333
aF0
aF2.6666666666666665
aF1.6666666666666667
aF-1
aF-1.3333333333333333
aF-1.3333333333333333
aNaF-0.33333333333333331
aF0.33333333333333331
aF-1.3333333333333333
aF0
aF0
aF-1.3333333333333333
aF0
aF0
aF0.33333333333333331
aNaF0
aF-1
aF0
aF0
aF-1.3333333333333333
aF16
aF2.6666666666666665
aF351.00000000000006
aF78.333333333333343
aF63.999999999999993
aF0
aF0
aF0.33333333333333331
aI1817
aF109.52360384404703
aS'H'
aS'H'
ag3
(S'\x07\xdb\x02\x01'
tRp584
aS'Man United'
p585
aS'Aston Villa'
p586
aa(lp587
F0
aF0.66666666666666674
aF-1.3333333333333333
aF-1.3333333333333333
aNaF-2
aF-0.33333333333333331
aF-0.83333333333333326
aF-1
aF0
aF-1
aF-0.33333333333333331
aF0
aF2
aNaF0
aF-0.33333333333333331
aF0.5
aF1.3333333333333333
aF1.3333333333333333
aF0
aF0
aF-0.33333333333333331
aF-0.33333333333333331
aNaF0
aF0.66666666666666674
aF-0.33333333333333331
aF-0.33333333333333331
aF-1.3333333333333333
aF-7.9999999999999982
aF-4
aF-359.66666666666669
aF-25.333333333333343
aF-11.666666666666671
aF-85.333333333333314
aF3.0000000000000009
aF-0.33333333333333331
aI-1520
aF62.705499461458714
aS'A'
aS'A'
ag3
(S'\x07\xdb\x01\x19'
tRp588
aS'Blackpool'
p589
aS'Man United'
p590
aa(lp591
F0.33333333333333331
aF0.33333333333333331
aF0
aF3
aF0.33333333333333331
aF0
aNaF0
aF0
aF0
aF-1.3333333333333333
aF-2.6666666666666665
aF-1
aF-1.3333333333333333
aF-2.6666666666666665
aF-0.33333333333333331
aNaF-0.33333333333333331
aF-1
aF0
aF1
aF0.33333333333333331
aF0.33333333333333331
aF-0.33333333333333331
aF0.33333333333333331
aF0.33333333333333331
aNaF1
aF0.33333333333333331
aF0
aF4
aF0.33333333333333331
aF325.00000000000006
aF135
aF27
aF352
aF-7.0000000000000009
aF0
aI276
aF293.8689905604333
aS'D'
aS'H'
ag3
(S'\x07\xdb\x01\x16'
tRp592
aS'Everton'
p593
aS'West Ham'
p594
aa(lp595
F-0.33333333333333331
aF1.3333333333333333
aF1.3333333333333333
aF1.3333333333333333
aNaF1.6666666666666667
aF0.33333333333333331
aF1
aF1
aF2.6666666666666665
aF1.6666666666666667
aF0.33333333333333331
aF-0.33333333333333331
aF-0.33333333333333331
aNaF0
aF0
aF-0.33333333333333331
aF-0.33333333333333331
aF-0.33333333333333331
aF-0.33333333333333331
aF-3
aF-1
aF-1
aNaF-0.33333333333333331
aF-1
aF0
aF0
aF-0.33333333333333331
aF2.333333333333333
aF1
aF57
aF17.333333333333329
aF-28.999999999999993
aF213.33333333333331
aF7.9999999999999982
aF0.33333333333333331
aI1496
aF113.36331103616492
aS'H'
aS'H'
ag3
(S'\x07\xdb\x01\x16'
tRp596
aS'Man United'
p597
aS'Birmingham'
p598
aa(lp599
F0
aNaF0
aF-3
aF0
aF-1
aNaF0
aF0
aF1
aF1.3333333333333333
aNaF1
aF0.33333333333333331
aF1
aF0.33333333333333331
aNaF0.33333333333333331
aF1
aF0
aF-1.3333333333333333
aNaF-0.33333333333333331
aF1.3333333333333333
aF-0.33333333333333331
aF0
aNaF-1
aF-0.33333333333333331
aF-0.33333333333333331
aF2.333333333333333
aF-1
aF-229.33333333333337
aF-81.666666666666657
aF11
aF-50.666666666666686
aF10.666666666666666
aF0
aI0
aF0.98015325743948067
aS'D'
aS'H'
ag3
(S'\x07\xdb\x01\x10'
tRp600
aS'Liverpool'
p601
aS'Everton'
p602
aa(lp603
F0.33333333333333331
aF0
aNaF0
aNaF-1.6666666666666667
aF0
aF-1
aF0
aF1
aF-1.6666666666666667
aF0
aNaF0
aNaF0.33333333333333331
aF0
aF0.33333333333333331
aF0.33333333333333331
aF0
aF0.33333333333333331
aF0
aNaF0
aNaF0
aF0
aF0
aF-0.33333333333333331
aF-1
aF-3.0000000000000009
aF0
aF144
aF96.000000000000014
aF21.333333333333329
aF41.333333333333314
aF-6.666666666666667
aF0.33333333333333331
aI-640
aF255.76042811298186
aS'D'
aS'A'
ag3
(S'\x07\xdb\x01\x10'
tRp604
aS'Tottenham'
p605
aS'Man United'
p606
aa(lp607
F0
aF-1
aNaF1.6666666666666667
aF0.33333333333333331
aF0
aNaF0
aF-2.6666666666666665
aF-1.3333333333333333
aF-0.33333333333333331
aF1
aNaF0
aF-2.6666666666666665
aF-0.33333333333333331
aNaF-0.33333333333333331
aF0.33333333333333331
aF1.3333333333333333
aF1
aF0
aNaF-0.33333333333333331
aF0.33333333333333331
aF0.33333333333333331
aNaF1
aF0.33333333333333331
aF0
aF-5.3333333333333339
aF1.6666666666666667
aF-165.66666666666669
aF-100.33333333333334
aF-60
aF111.66666666666669
aF-13.333333333333332
aF-1
aI-812
aF283.10486349992709
aS'H'
aS'A'
ag3
(S'\x07\xdb\x01\x05'
tRp608
aS'Everton'
p609
aS'Tottenham'
p610
aa(lp611
F0
aF1
aF2.6666666666666665
aF1.3333333333333333
aNaF3
aF0
aF1
aF0
aF1.6666666666666667
aF-1
aF0
aF-1.3333333333333333
aF-0.33333333333333331
aNaF0
aF0
aF-0.33333333333333331
aF-0.33333333333333331
aF0
aF0
aF-0.33333333333333331
aF0
aF-1
aNaF-3
aF0
aF0
aF0.33333333333333331
aF-0.33333333333333331
aF3.0000000000000009
aF1
aF-61
aF-37.000000000000014
aF8.9999999999999929
aF-225
aF-15
aF0
aI952
aF53.323400364781961
aS'H'
aS'H'
ag3
(S'\x07\xdb\x01\x04'
tRp612
aS'Man United'
p613
aS'Stoke'
p614
aa(lp615
F-0.33333333333333331
aF0
aF0.33333333333333331
aF-3
aF-0.33333333333333331
aF-1.3333333333333333
aNaF0
aF0
aF-0.33333333333333331
aF3
aF-1
aF1
aF0.33333333333333331
aF2.6666666666666665
aF0
aNaF0.33333333333333331
aF1.3333333333333333
aF1.3333333333333333
aF-1.3333333333333333
aF0.33333333333333331
aF-1.3333333333333333
aF1.3333333333333333
aF-0.33333333333333331
aF2.6666666666666665
aNaF-1
aF-1.3333333333333333
aF-1
aF-1.6666666666666667
aF-3
aF197.33333333333337
aF76.000000000000014
aF76.000000000000014
aF-27
aF3.0000000000000009
aF-0.33333333333333331
aI92
aF72.664635257232376
aS'H'
aS'H'
ag3
(S'\x07\xdb\x01\x01'
tRp616
aS'Stoke'
p617
aS'Everton'
p618
aa(lp619
F0
aF-1.3333333333333333
aF-3
aF-1.3333333333333333
aNaF-3
aF0.66666666666666674
aF-0.33333333333333326
aF-1.3333333333333333
aF0.33333333333333331
aF-1
aF0.66666666666666674
aF0
aF1
aNaF1
aF-0.33333333333333331
aF0
aF3
aF1.3333333333333333
aF0
aF0
aF1
aF-0.33333333333333331
aNaF0
aF-0.33333333333333331
aF-0.33333333333333331
aF-0.33333333333333331
aF-3
aF-4
aF-1
aF255.00000000000006
aF0
aF196
aF77.333333333333314
aF2.333333333333333
aF0.33333333333333331
aI-960
aF108.34188505012203
aS'A'
aS'A'
ag3
(S'\x07\xdb\x01\x01'
tRp620
aS'West Brom'
p621
aS'Man United'
p622
aa(lp623
F0.33333333333333331
aF-1.3333333333333333
aF-3
aF-1.3333333333333333
aNaF-1.6666666666666667
aF-0.33333333333333331
aF-1
aF-3
aF0
aF-1.6666666666666667
aF-0.33333333333333331
aF0.33333333333333331
aF0.33333333333333331
aNaF0
aF0
aF0.33333333333333331
aF0.33333333333333331
aF0
aF0.33333333333333331
aF3
aF1.3333333333333333
aF1
aNaF0.33333333333333331
aF1
aF0
aF1.3333333333333333
aF0
aF-32
aF-8
aF-440
aF-299
aF-27
aF320
aF8.3333333333333339
aF0
aI-1045
aF113.36331103616492
aS'D'
aS'A'
ag3
(S'\x07\xda\x0c\x1c'
tRp624
aS'Birmingham'
p625
aS'Man United'
p626
aa(lp627
F-0.33333333333333331
aF-0.33333333333333331
aF0.33333333333333331
aF-3
aF-0.33333333333333331
aF0
aNaF0
aF0
aF0
aF1.3333333333333333
aF1.6666666666666667
aF1
aF1.3333333333333333
aF2.6666666666666665
aF0.33333333333333331
aNaF0.33333333333333331
aF0.33333333333333331
aF0.33333333333333331
aF-1
aF0
aF-1.3333333333333333
aF0.33333333333333331
aF-0.33333333333333331
aF-0.33333333333333331
aNaF-1
aF-1
aF-1
aF5.3333333333333339
aF0
aF-46.666666666666686
aF-51.666666666666664
aF-7
aF-156.33333333333331
aF-12.999999999999998
aF-0.33333333333333331
aI-185
aF293.8689905604333
aS'D'
aS'A'
ag3
(S'\x07\xda\x0c\x1c'
tRp628
aS'West Ham'
p629
aS'Everton'
p630
aa(lp631
F-0.33333333333333331
aF1
aF2.6666666666666665
aF1
aNaF3
aF0.33333333333333331
aNaF1.6666666666666667
aF2.6666666666666665
aF0.66666666666666674
aF0
aF-0.33333333333333331
aF-0.33333333333333331
aNaF-0.33333333333333331
aF0
aNaF0
aF-0.33333333333333331
aF0
aF-0.33333333333333331
aF-0.33333333333333331
aF0
aNaF-1.3333333333333333
aF-1
aNaF-0.33333333333333331
aF-0.33333333333333331
aF32
aF7.0000000000000009
aF145
aF242.66666666666669
aF81.666666666666671
aF15
aF-3
aF0
aI427
aF171.74840979274185
aS'H'
aS'H'
ag3
(S'\x07\xda\x0c\x1a'
tRp632
aS'Man United'
p633
aS'Sunderland'
p634
aa(lp635
F2.6666666666666665
aF0
aF0
aNaF-0.33333333333333331
aF0
aNaF0
aF1.3333333333333333
aF0.33333333333333331
aF0
aF-1.3333333333333333
aF1
aNaF1
aF0
aNaF0.33333333333333331
aF-0.33333333333333331
aF0
aF-1.3333333333333333
aF1.3333333333333333
aF-1
aNaF0
aF0
aNaF-1
aF-1
aF-1.6666666666666667
aF7.0000000000000009
aF1
aF-112
aF26.666666666666671
aF28.999999999999993
aF0
aF5
aF0
aI700
aF50.938602100397503
aS'A'
aS'H'
ag3
(S'\x07\xda\x0c\x14'
tRp636
aS'Man City'
p637
aS'Everton'
p638
aa(lp639
F0
aF0
aF2.6666666666666665
aF1
aNaF2.5
aF-1
aF0
aF0
aF0
aF-1
aF0.33333333333333331
aF-1.3333333333333333
aF-0.33333333333333331
aNaF-0.5
aF0.33333333333333331
aF-0.33333333333333331
aF-0.33333333333333331
aF0
aF0
aF-0.33333333333333331
aF0
aF0
aNaF0
aF0
aF1
aF0.33333333333333331
aF0
aF19.000000000000004
aF-3.0000000000000009
aF122.66666666666663
aF137.66666666666666
aF120
aF-111.99999999999997
aF0
aF0
aI-63
aF258.51867563718656
aS'H'
aS'H'
ag3
(S'\x07\xda\x0c\r'
tRp640
aS'Man United'
p641
aS'Arsenal'
p642
aa(lp643
F0
aF0
aF-0.33333333333333331
aF2
aF0.33333333333333331
aNaNaF0
aF0
aF0
aF-1.3333333333333333
aF1
aF-1
aF-1.3333333333333333
aF-2.6666666666666665
aNaNaF0
aF-1
aF-1.6666666666666667
aF1.3333333333333333
aF-0.33333333333333331
aF1.3333333333333333
aF-0.33333333333333331
aF0.33333333333333331
aNaNaF0
aF1
aF0.33333333333333331
aF2.333333333333333
aF0
aF73
aF-41.000000000000014
aF0
aF-82.666666666666686
aF13.333333333333332
aF-1
aI64
aF23.975606104337857
aS'D'
aS'H'
ag3
(S'\x07\xda\x0c\x0b'
tRp644
aS'Everton'
p645
aS'Wigan'
p646
aa(lp647
NaF1
aF0.5
aF-2
aF1.6666666666666667
aF-0.66666666666666674
aNaF1
aF0
aF1.3333333333333333
aNaF-1
aF0.16666666666666669
aF3
aF-0.33333333333333331
aF0.33333333333333331
aNaF0.33333333333333331
aF0
aF0.33333333333333331
aNaF0
aF-1.3333333333333333
aF0
aF-0.33333333333333331
aF0
aNaF-1.3333333333333333
aF0
aF-3
aF-5
aF-1
aF576.33333333333337
aF160
aF168
aF-201.66666666666666
aF-7.0000000000000009
aF-0.33333333333333331
aI585
aF287.58493307119272
aS'D'
aS'H'
ag3
(S'\x07\xda\x0c\x04'
tRp648
aS'Chelsea'
p649
aS'Everton'
p650
aa(lp651
F0.5
aF0.33333333333333331
aF0
aF2
aF0.33333333333333331
aF2
aNaF-0.66666666666666674
aF0
aF0.33333333333333331
aF-1
aF0.33333333333333326
aF0.33333333333333331
aF-1
aF0.33333333333333331
aF-1
aNaF0
aF-1
aF-1
aF0.5
aF0
aF0.33333333333333326
aF0
aF-0.66666666666666674
aF0
aNaF1.3333333333333333
aF1
aF0
aF4
aF0
aF176
aF109.66666666666666
aF127.99999999999997
aF38.666666666666686
aF5
aF0.33333333333333331
aI0
aF123.28269845526712
aS'A'
aS'H'
ag3
(S'\x07\xda\x0b\x1b'
tRp652
aS'Everton'
p653
aS'West Brom'
p654
aa(lp655
F0
aF1.3333333333333333
aF3
aF1.3333333333333333
aNaF1.6666666666666667
aF0
aF0.33333333333333331
aF-1
aF2.6666666666666665
aF0.66666666666666674
aF-1
aF-3
aF-1.3333333333333333
aNaF0
aF-1
aF-0.33333333333333331
aF-0.33333333333333331
aF-1.3333333333333333
aF-0.33333333333333331
aF-0.33333333333333331
aF0
aF0
aNaF-0.33333333333333331
aF0.33333333333333331
aF0
aF1.3333333333333333
aF0
aF-6.666666666666667
aF-1
aF170.33333333333337
aF117.33333333333334
aF128.33333333333334
aF-240.00000000000006
aF0
aF0
aI460
aF32.262740424616027
aS'H'
aS'H'
ag3
(S'\x07\xda\x0b\x1b'
tRp656
aS'Man United'
p657
aS'Blackburn'
p658
aa(lp659
F-0.16666666666666669
aF0
aF0.33333333333333331
aF-1.6666666666666667
aF-0.33333333333333331
aF-2
aNaNaF1.3333333333333333
aF1
aF1.3333333333333333
aF-1
aF0
aF0.33333333333333331
aF0
aF0.33333333333333331
aNaNaF-0.33333333333333331
aF0
aF-0.5
aF0.33333333333333331
aF-1
aF0.33333333333333331
aF1
aF1.3333333333333333
aNaNaF-1
aF-1
aF6.666666666666667
aF1
aF-522.66666666666663
aF-229.66666666666666
aF-272.33333333333331
aF73
aF0
aF-0.33333333333333331
aI136
aF193.56559314115574
aS'D'
aS'H'
ag3
(S'\x07\xda\x0b\x16'
tRp660
aS'Sunderland'
p661
aS'Everton'
p662
aa(lp663
F-0.33333333333333331
aF1
aF2.6666666666666665
aF1.3333333333333333
aNaNaF0.33333333333333331
aF0
aF0
aF1.3333333333333333
aF0.66666666666666674
aF0
aF-1.3333333333333333
aF-1.3333333333333333
aNaNaF-1.6666666666666667
aF0
aF-0.33333333333333331
aF-1.3333333333333333
aF0
aF-0.33333333333333331
aF0
aF0
aNaNaF0.33333333333333331
aF0
aF1
aF0
aF2.333333333333333
aF0.33333333333333331
aF-50.666666666666686
aF30.666666666666657
aF-10.333333333333329
aF-165.33333333333331
aF13.333333333333332
aF0
aI429
aF25.730718885093015
aS'H'
aS'H'
ag3
(S'\x07\xda\x0b\x14'
tRp664
aS'Man United'
p665
aS'Wigan'
p666
aa(lp667
F0.5
aF-1
aF-0.5
aF1.6666666666666667
aF0.33333333333333331
aF1.5
aNaF0.16666666666666669
aF-1
aF0
aF-3
aF1.3333333333333333
aF-0.16666666666666669
aF-0.33333333333333331
aF-1.6666666666666667
aF-0.5
aNaF-0.33333333333333331
aF-0.33333333333333331
aF-0.33333333333333331
aF0.5
aF-0.33333333333333331
aF1.3333333333333333
aF-0.33333333333333331
aF0.33333333333333331
aF0
aNaF0.16666666666666669
aF1.3333333333333333
aF0.33333333333333331
aF2.333333333333333
aF0
aF623.99999999999989
aF151.66666666666669
aF114.33333333333331
aF-213.33333333333337
aF-14.999999999999998
aF0
aI-304
aF285.11763486171071
aS'A'
aS'A'
ag3
(S'\x07\xda\x0b\x0e'
tRp668
aS'Everton'
p669
aS'Arsenal'
p670
aa(lp671
F0.33333333333333331
aF-0.83333333333333326
aF-3
aF-1.3333333333333333
aNaF-1.5
aF0
aF0
aF-1
aF0
aF-1.6666666666666667
aF0.16666666666666669
aF0.33333333333333331
aF0.5
aNaF0.5
aF-0.33333333333333331
aF0.33333333333333331
aF0
aF0
aF0.33333333333333331
aF0
aF1.3333333333333333
aF0.16666666666666669
aNaF0
aF1
aF-1
aF1
aF0
aF0
aF0
aF53.333333333333371
aF-15.666666666666657
aF48
aF-108
aF2.333333333333333
aF0
aI-320
aF109.52360384404703
aS'D'
aS'A'
ag3
(S'\x07\xda\x0b\r'
tRp672
aS'Aston Villa'
p673
aS'Man United'
p674
aa(lp675
F0.5
aF0.33333333333333331
aF-0.33333333333333331
aF2
aF0.33333333333333331
aF1.6666666666666667
aNaF0.5
aF0
aF1.3333333333333333
aF-2
aF-1.6666666666666667
aF0
aF-0.5
aF-1
aF0
aNaF-2
aF-0.33333333333333331
aF0.33333333333333331
aF0.5
aF0
aF1
aF-0.5
aF0
aF-1.3333333333333333
aNaF0.5
aF1
aF-3
aF-3.0000000000000009
aF1
aF114.66666666666663
aF109.66666666666666
aF75
aF0
aF-5.3333333333333339
aF0
aI-29
aF32.567376549038251
aS'D'
aS'H'
ag3
(S'\x07\xda\x0b\n'
tRp676
aS'Everton'
p677
aS'Bolton'
p678
aa(lp679
F3
aF-1
aF-3
aNaNaF-0.66666666666666674
aF-0.33333333333333331
aF0
aF-2.6666666666666665
aF1
aF-2
aF-0.33333333333333331
aF1.3333333333333333
aNaNaF0
aF1.6666666666666667
aF0.33333333333333331
aF1.3333333333333333
aF0.33333333333333331
aF0
aF1.3333333333333333
aF0.33333333333333331
aNaNaF0.33333333333333331
aF-0.33333333333333331
aF-1
aF0
aF-1.3333333333333333
aF-9
aF0
aF-237.00000000000006
aF-75
aF31.999999999999993
aF240.00000000000006
aF18.333333333333332
aF1.3333333333333333
aI-129
aF6.4091066836603519
aS'D'
aS'H'
ag3
(S'\x07\xda\x0b\n'
tRp680
aS'Man City'
p681
aS'Man United'
p682
aa(lp683
F-0.5
aF0.66666666666666674
aF0
aF-2
aF-0.33333333333333331
aF-1
aNaF-0.5
aF-1
aF0
aF1
aF-1.3333333333333333
aF-0.33333333333333331
aF1
aF-0.33333333333333331
aF0
aNaF0
aF1.3333333333333333
aF1.3333333333333333
aF-0.5
aF0
aF-1.3333333333333333
aF0
aF-0.33333333333333331
aF0
aNaF-0.5
aF-0.33333333333333331
aF-1.3333333333333333
aF0
aF-1
aF481.66666666666669
aF0
aF39
aF27
aF-2.333333333333333
aF0
aI0
aF41.055532975309589
aS'D'
aS'A'
ag3
(S'\x07\xda\x0b\x06'
tRp684
aS'Blackpool'
p685
aS'Everton'
p686
aa(lp687
F0
aF1.3333333333333333
aF1.6666666666666667
aF1.6666666666666667
aNaF1.6666666666666667
aF0.33333333333333331
aF-0.16666666666666669
aF1
aF1.3333333333333333
aF-1
aF-0.16666666666666669
aF-0.33333333333333331
aF-1.3333333333333333
aNaF-1.3333333333333333
aF0.33333333333333331
aF-0.5
aF-0.33333333333333331
aF-3
aF0
aF-0.5
aF0
aF0
aNaF0
aF-2.6666666666666665
aF1.3333333333333333
aF0
aF0.33333333333333331
aF9
aF4
aF385.00000000000006
aF58.666666666666657
aF-113.66666666666666
aF231.99999999999997
aF0
aF0
aI319
aF97.639104184963045
aS'H'
aS'H'
ag3
(S'\x07\xda\x0b\x06'
tRp688
aS'Man United'
p689
aS'Wolves'
p690
aa(lp691
F0.5
aF0.33333333333333331
aF-0.33333333333333331
aF2
aF0.33333333333333331
aF2
aNaF0
aF1
aF0
aF-3
aF0.83333333333333326
aF-1
aF-0.5
aF-2.6666666666666665
aF0
aNaF0
aF-1.3333333333333333
aF-1
aF0.5
aF-0.5
aF1.3333333333333333
aF-0.5
aF0.33333333333333331
aF-2
aNaF0
aF0.33333333333333331
aF0.33333333333333331
aF5.3333333333333339
aF1.3333333333333333
aF-98.333333333333314
aF-10.333333333333329
aF-24
aF246.99999999999997
aF-9
aF0
aI0
aF72.664635257232376
aS'H'
aS'H'
ag3
(S'\x07\xda\n\x1e'
tRp692
aS'Everton'
p693
aS'Stoke'
p694
aa(lp695
F-0.5
aF0.83333333333333326
aNaF0.66666666666666674
aNaF0.66666666666666674
aF0
aF-0.16666666666666669
aF-1
aF1
aF1.5
aF-0.16666666666666669
aNaF0
aNaF-0.33333333333333331
aF0.33333333333333331
aF-0.5
aF0
aF-0.33333333333333331
aF0
aF0
aNaF-0.33333333333333331
aNaF0
aF-1
aF1.3333333333333333
aF1
aF0
aF-3.0000000000000009
aF0
aF-224.00000000000006
aF-84
aF-152
aF-176
aF0
aF0
aI64
aF255.76042811298186
aS'H'
aS'H'
ag3
(S'\x07\xda\n\x1e'
tRp696
aS'Man United'
p697
aS'Tottenham'
p698
aa(lp699
F0
aF-1.3333333333333333
aF-1.6666666666666667
aF-2
aNaF-2
aF-0.33333333333333331
aF0.16666666666666669
aF1.3333333333333333
aF1.3333333333333333
aF1
aF0.16666666666666669
aF1.3333333333333333
aF0.5
aNaF0
aF-0.33333333333333331
aF0
aF0.33333333333333331
aF0
aF0
aF0.5
aF0
aF0.5
aNaF2
aF1.6666666666666667
aF-0.83333333333333326
aF-3
aF-2.6666666666666665
aF0
aF-3
aF-96
aF-35
aF-12.333333333333329
aF-142.33333333333331
aF0
aF0
aI-96
aF53.323400364781961
aS'A'
aS'A'
ag3
(S'\x07\xda\n\x18'
tRp700
aS'Stoke'
p701
aS'Man United'
p702
aa(lp703
F0
aF0.16666666666666669
aNaF-0.66666666666666674
aF-0.33333333333333331
aF-0.66666666666666674
aNaF0
aF0
aF2.6666666666666665
aF0.5
aF-0.83333333333333326
aNaF0
aF1.6666666666666667
aF0.33333333333333331
aNaF0.5
aF0.33333333333333331
aF0
aF-0.5
aF0
aNaF0.33333333333333331
aF-0.33333333333333331
aF0
aNaF-0.5
aF-0.33333333333333331
aF-1.3333333333333333
aF0
aF1
aF425.00000000000006
aF122.66666666666667
aF153.33333333333331
aF-22.333333333333314
aF-1.6666666666666667
aF0
aI115
aF283.10486349992709
aS'D'
aS'H'
ag3
(S'\x07\xda\n\x17'
tRp704
aS'Tottenham'
p705
aS'Everton'
p706
aa(lp707
F0.5
aNaF-0.5
aF2
aF0
aF1.5
aNaF0.16666666666666669
aF0.33333333333333331
aF0.33333333333333331
aF-2
aNaF0
aF-0.33333333333333331
aF-1
aF-0.5
aNaF-0.33333333333333331
aF-1
aF0
aF0.5
aNaF0.5
aF-1.3333333333333333
aF0.33333333333333331
aF0
aNaF0.16666666666666669
aF0
aF-1
aF-7.0000000000000009
aF-0.33333333333333331
aF-165.66666666666669
aF0
aF29.333333333333336
aF75
aF-9
aF0
aI0
aF0.98015325743948067
aS'H'
aS'H'
ag3
(S'\x07\xda\n\x11'
tRp708
aS'Everton'
p709
aS'Liverpool'
p710
aa(lp711
F0
aF1.3333333333333333
aF2
aF2
aNaF2
aF0.33333333333333331
aF-0.66666666666666674
aF-1
aF2
aF1
aF-0.66666666666666674
aF0
aF0
aNaF0
aF0.33333333333333331
aF0
aF0
aF0
aF0
aF0
aF-1
aF0
aNaF0
aF0.33333333333333331
aF1.3333333333333333
aF1
aF0
aF-7.9999999999999982
aF1.3333333333333333
aF-52.000000000000057
aF-95.666666666666671
aF76.000000000000014
aF144
aF5
aF0
aI48
aF108.34188505012203
aS'D'
aS'H'
ag3
(S'\x07\xda\n\x10'
tRp712
aS'Man United'
p713
aS'West Brom'
p714
aa(lp715
F-0.5
aF0
aF0
aF-2
aF-0.33333333333333331
aF-0.66666666666666674
aNaF-0.16666666666666669
aF0
aF0
aF0.5
aF-2
aF0
aF0.5
aF0.16666666666666669
aF0
aNaF0.33333333333333331
aF0
aF0
aF0
aF3
aF0
aF0.5
aF0.16666666666666669
aF0.33333333333333331
aNaF-0.16666666666666669
aF0
aF0
aF-2.6666666666666665
aF0
aF-325.00000000000006
aF-158.66666666666666
aF-58.666666666666671
aF-245.66666666666669
aF0
aF0.33333333333333331
aI40
aF129.89172947786224
aS'A'
aS'A'
ag3
(S'\x07\xda\n\x02'
tRp716
aS'Birmingham'
p717
aS'Everton'
p718
aa(lp719
F0
aF-1
aF-1.5
aF-1.6666666666666667
aNaF-2
aF-0.33333333333333331
aNaF-0.33333333333333331
aF0
aF0
aF0
aF0.5
aF0.33333333333333331
aNaF0.33333333333333331
aF0.16666666666666669
aNaF0
aF0.33333333333333331
aF0
aF0.33333333333333331
aF0
aF0.33333333333333331
aNaF1.3333333333333333
aF0.16666666666666669
aNaF1.6666666666666667
aF-1
aF-16
aF-2.6666666666666665
aF-260.33333333333337
aF-125.66666666666667
aF-101.33333333333334
aF-586.66666666666674
aF-7.9999999999999982
aF0.33333333333333331
aI-95
aF171.74840979274185
aS'D'
aS'A'
ag3
(S'\x07\xda\n\x02'
tRp720
aS'Sunderland'
p721
aS'Man United'
p722
aa(lp723
F0.5
aF-0.5
aF0
aF2
aF0.5
aF1.5
aNaF0.5
aF1
aF1.3333333333333333
aF-2
aF1.5
aF-1.5
aF-2
aF-1.5
aF0
aNaF0
aF-0.33333333333333331
aF-0.33333333333333331
aF0.5
aF0
aF0.5
aF0
aF0
aF-0.5
aNaF-1.5
aF0
aF-1
aF-3.6666666666666661
aF-2.6666666666666665
aF-104.00000000000006
aF-64
aF-35
aF-18.333333333333314
aF1
aF0
aI2580
aF321.21203083564887
aS'H'
aS'H'
ag3
(S'\x07\xda\x05\t'
tRp724
aS'Everton'
p725
aS'Portsmouth'
p726
aa(lp727
F0
aF0.5
aF1.5
aF2
aNaF2
aF0.5
aF0
aF2.6666666666666665
aF1
aF0
aF0
aF-0.5
aF-0.5
aNaF0
aF0.5
aF0
aF-0.33333333333333331
aF0
aF0
aF-0.5
aF0
aF-0.5
aNaF-2
aF-2
aF0
aF-0.33333333333333331
aF-0.33333333333333331
aF8
aF0.33333333333333331
aF454.66666666666663
aF100
aF29.333333333333336
aF124
aF-6.666666666666667
aF0
aI4515
aF53.323400364781961
aS'H'
aS'H'
ag3
(S'\x07\xda\x05\t'
tRp728
aS'Man United'
p729
aS'Stoke'
p730
aa(lp731
F0
aF0
aF-1.5
aF-2
aNaF-2
aF-0.5
aNaF0
aF1.6666666666666667
aF0
aF0
aF0.5
aF0.5
aNaF0.5
aF0
aNaF0.33333333333333331
aF0
aF0
aF0
aF0
aF0.5
aNaF0.5
aF0.5
aNaF-0.33333333333333331
aF-0.33333333333333331
aF-2.333333333333333
aF3
aF-152.00000000000006
aF80.000000000000014
aF0
aF410.66666666666669
aF21.666666666666668
aF0.33333333333333331
aI-4305
aF171.74840979274185
aS'A'
aS'A'
ag3
(S'\x07\xda\x05\x02'
tRp732
aS'Sunderland'
p733
aS'Man United'
p734
aa(lp735
F-0.5
aF0
aF0.5
aF-2
aF-0.5
aF-2
aNaF0
aF-1.3333333333333333
aF0
aF2
aF-1.5
aF0
aF0.5
aF0.5
aF0
aNaF0
aF1.3333333333333333
aF1.3333333333333333
aF-0.5
aF0.5
aF-0.5
aF0.5
aF0
aF2
aNaF0
aF0
aF-1.3333333333333333
aF-15.999999999999998
aF-1
aF-330.66666666666663
aF-155
aF-55.999999999999993
aF0
aF0
aF0
aI-1400
aF72.664635257232376
aS'D'
aS'A'
ag3
(S'\x07\xda\x05\x01'
tRp736
aS'Stoke'
p737
aS'Everton'
p738
aa(lp739
F0.5
aF-0.5
aF0
aF2
aF0
aF1.5
aNaF0
aF0
aF1.3333333333333333
aF-2
aF2
aF0
aF-0.5
aF0
aF0
aNaF0
aF0
aF-1.3333333333333333
aF0.5
aF-0.5
aF0
aF-0.5
aF0
aF-0.5
aNaF0
aF0
aF0
aF14.999999999999998
aF3
aF251.99999999999997
aF80
aF-14.666666666666664
aF-206.66666666666666
aF3.6666666666666661
aF0
aI1067
aF286.81183210199458
aS'H'
aS'H'
ag3
(S'\x07\xda\x04\x19'
tRp740
aS'Everton'
p741
aS'Fulham'
p742
aa(lp743
F-0.5
aF0
aNaF1
aNaF0
aF0
aF-0.5
aF-1
aF0
aF1.5
aF0
aNaF0
aNaF0
aF0.5
aF-0.5
aF0
aF0
aF0
aF0
aNaF0
aNaF0
aF-0.5
aF1
aF0.33333333333333331
aF0
aF-7.0000000000000009
aF-3
aF-266.66666666666669
aF-232.33333333333331
aF-101.33333333333334
aF73
aF3.6666666666666661
aF0
aI1680
aF255.76042811298186
aS'H'
aS'H'
ag3
(S'\x07\xda\x04\x18'
tRp744
aS'Man United'
p745
aS'Tottenham'
p746
aa(lp747
F-0.5
aF0
aF0
aF-2
aF-0.5
aF-1.5
aNaF-0.5
aF0.33333333333333331
aF0
aF0.5
aF-1.5
aF1.5
aF2
aF0
aF0
aNaF0.5
aF0
aF0
aF0
aF0.5
aF-0.5
aF0
aF0.5
aF0.5
aNaF0
aF-1.6666666666666667
aF0
aF-5
aF-1
aF-243
aF-127.99999999999997
aF-27
aF170.66666666666669
aF-3.0000000000000009
aF0
aI-752
aF45.045617758342772
aS'A'
aS'A'
ag3
(S'\x07\xda\x04\x11'
tRp748
aS'Blackburn'
p749
aS'Everton'
p750
aa(lp751
F2
aF-0.5
aF-1
aNaNaF-1.5
aF-0.5
aF0.5
aF2.6666666666666665
aF0
aF-2
aF-0.5
aF1
aNaNaF0
aF1.5
aF0
aF-0.33333333333333331
aF0.33333333333333331
aF0
aF2
aF0
aNaNaF0.5
aF0
aF-0.5
aF-0.33333333333333331
aF-0.33333333333333331
aF56.999999999999993
aF21
aF328.00000000000006
aF203.66666666666669
aF22.666666666666671
aF-219.00000000000006
aF-5.3333333333333339
aF0
aI-1485
aF6.4091066836603519
aS'A'
aS'A'
ag3
(S'\x07\xda\x04\x11'
tRp752
aS'Man City'
p753
aS'Man United'
p754
aa(lp755
F0
aF0.5
aF0
aF-2
aF0
aF-1.5
aNaF0
aF0
aF0
aF0.5
aF-1.5
aF-0.5
aF0
aF-0.5
aF0.5
aNaF0
aF0.33333333333333331
aF0
aF-0.5
aF0
aF1.5
aF1
aF0.5
aF0
aNaF0
aF-1
aF0
aF-2.333333333333333
aF1.6666666666666667
aF-267.66666666666669
aF-100.33333333333334
aF77
aF-88.333333333333314
aF-7.0000000000000009
aF0
aI416
aF126.23065894863628
aS'D'
aS'H'
ag3
(S'\x07\xda\x04\x0e'
tRp756
aS'Aston Villa'
p757
aS'Everton'
p758
aa(lp759
F0
aF-0.5
aF-1
aF-1
aNaF-1.5
aF-0.5
aF0
aF0
aF0
aF-1.5
aF0
aF2
aF2
aNaF0
aF0.5
aF0.5
aF-0.33333333333333331
aF-0.33333333333333331
aF0.5
aF0.5
aF0
aF0
aNaF0.5
aF0
aF-0.5
aF0.33333333333333331
aF0.33333333333333331
aF-13.333333333333332
aF0
aF115
aF48.000000000000014
aF51.999999999999993
aF26.333333333333371
aF0
aF0
aI-3420
aF32.262740424616027
aS'D'
aS'A'
ag3
(S'\x07\xda\x04\x0b'
tRp760
aS'Blackburn'
p761
aS'Man United'
p762
aa(lp763
F0.5
aF0
aF0
aF2
aF0.5
aF2
aNaF0.5
aF1.3333333333333333
aF3
aF-0.5
aF1
aF-1.5
aF-1
aF-1.5
aF-1
aNaF0
aF-3
aF-3
aF0
aF0
aF0.5
aF0
aF0
aF0
aNaF-0.5
aF0.33333333333333331
aF0
aF5
aF0.33333333333333331
aF245.33333333333337
aF173.33333333333331
aF11
aF-351.00000000000006
aF0
aF0
aI1672
aF293.8689905604333
aS'D'
aS'H'
ag3
(S'\x07\xda\x04\x04'
tRp764
aS'Everton'
p765
aS'West Ham'
p766
aa(lp767
NaF-0.5
aF0
aF1
aNaF2
aF0.5
aF-2
aF1.6666666666666667
aF1.6666666666666667
aNaF0.5
aF0
aF-2
aNaF-1
aF0
aF0
aF0
aF0
aNaF0
aF0
aF0
aNaF0
aF-0.5
aF1
aF-0.33333333333333331
aF-0.33333333333333331
aF-29.333333333333336
aF-4
aF308.99999999999989
aF41.333333333333314
aF-100.33333333333334
aF0
aF-9
aF0
aI143
aF262.24830639062515
aS'A'
aS'H'
ag3
(S'\x07\xda\x04\x03'
tRp768
aS'Man United'
p769
aS'Chelsea'
p770
aa(lp771
F0
aF-0.5
aF-1
aF-1
aNaF-1.5
aF0
aF0
aF-2.6666666666666665
aF1
aF0
aF1.5
aF0
aF0.5
aNaF0
aF0
aF2
aF1.3333333333333333
aF-0.33333333333333331
aF0
aF0
aF1
aF0.5
aNaF0.5
aF0
aF-1
aF0
aF0
aF-6.666666666666667
aF0
aF-974.33333333333326
aF-252
aF-28.999999999999993
aF528
aF0
aF1.3333333333333333
aI-3737
aF20.773967847011392
aS'A'
aS'A'
ag3
(S'\x07\xda\x03\x1b'
tRp772
aS'Bolton'
p773
aS'Man United'
p774
aa(lp775
F-0.5
aF0
aF2
aF-2
aF-0.5
aF-1.5
aNaF-0.5
aF0
aF0
aF2
aF-1.5
aF-0.5
aF2
aF1.5
aF0.5
aNaF1
aF0
aF1
aF-0.5
aF0.5
aF-0.5
aF0
aF0
aF0
aNaF-0.5
aF0
aF-0.33333333333333331
aF4.3333333333333321
aF2.333333333333333
aF-440.00000000000006
aF-239.99999999999997
aF20
aF720
aF16
aF0
aI-1343
aF109.68259618137256
aS'D'
aS'A'
ag3
(S'\x07\xda\x03\x1b'
tRp776
aS'Wolves'
p777
aS'Everton'
p778
aa(lp779
F1.5
aF0
aF0
aNaF-0.5
aF-2
aNaF0
aF0
aF1.3333333333333333
aF0
aF-2
aF0.5
aNaF0.5
aF0
aNaF0
aF0
aF-1.3333333333333333
aF-0.5
aF2
aF-0.5
aNaF0
aF1
aNaF0
aF0
aF0
aF-10.666666666666668
aF-2.333333333333333
aF-392.00000000000006
aF-149.33333333333331
aF-24.999999999999993
aF-88
aF7.0000000000000009
aF0
aI784
aF50.938602100397503
aS'A'
aS'H'
ag3
(S'\x07\xda\x03\x18'
tRp780
aS'Man City'
p781
aS'Everton'
p782
aa(lp783
F0
aNaF0.5
aF1
aNaF1.5
aF-1.5
aF0
aF1.6666666666666667
aF3
aF0
aNaF-0.5
aF0
aNaF-0.5
aF0.5
aF-1
aF-0.33333333333333331
aF-1.3333333333333333
aF0
aNaF0
aF-2
aNaF0
aF0
aF1
aF0
aF-0.33333333333333331
aF4.3333333333333321
aF-8
aF494.66666666666663
aF238.33333333333331
aF26.666666666666671
aF-176.99999999999997
aF-10.666666666666666
aF0
aI1755
aF44.466125065948304
aS'H'
aS'H'
ag3
(S'\x07\xda\x03\x15'
tRp784
aS'Man United'
p785
aS'Liverpool'
p786
aa(lp787
F0.5
aF0
aF0
aF1
aF0.5
aF1.5
aNaF0.5
aF-1
aF2.6666666666666665
aF-1
aF0
aF0.5
aF-0.5
aF-0.5
aF0
aNaF-2
aF0
aF-1.3333333333333333
aF0.5
aF0
aF-0.5
aF-0.5
aF0
aF-0.5
aNaF0.5
aF0.33333333333333331
aF0
aF9.3333333333333321
aF2.333333333333333
aF375
aF245.33333333333331
aF39.999999999999993
aF-306.66666666666663
aF-12.999999999999998
aF-1.3333333333333333
aI740
aF32.567376549038251
aS'H'
aS'H'
ag3
(S'\x07\xda\x03\x14'
tRp788
aS'Everton'
p789
aS'Bolton'
p790
aa(lp791
F0
aF-1
aF1
aF1
aNaF2
aF-0.5
aF-0.5
aF0
aF3
aF-1
aF1
aF-0.5
aF0
aNaF0
aF0.5
aF0
aF0.33333333333333331
aF-0.33333333333333331
aF0
aF0
aF-0.5
aF-1
aNaF-1
aF0
aF0.5
aF-0.33333333333333331
aF-1.3333333333333333
aF0
aF0
aF181.33333333333331
aF13.000000000000014
aF121
aF-124
aF-7.0000000000000009
aF0
aI2525
aF261.76785936155176
aS'H'
aS'H'
ag3
(S'\x07\xda\x03\x0e'
tRp792
aS'Man United'
p793
aS'Fulham'
p794
aa(lp795
F-0.5
aF0
aF0
aF-1
aF-0.5
aF0
aNaF0.5
aF0
aF1
aF0.5
aF-2
aF0
aF0
aF0
aF0
aNaF0
aF0
aF-1.3333333333333333
aF0
aF1
aF0
aF1
aF0.5
aF0
aNaF-0.5
aF0
aF0.33333333333333331
aF-21.666666666666668
aF2.333333333333333
aF-336.00000000000006
aF-146.66666666666669
aF-69.333333333333329
aF87
aF-21.666666666666668
aF0
aI168
aF129.89172947786224
aS'D'
aS'A'
ag3
(S'\x07\xda\x03\r'
tRp796
aS'Birmingham'
p797
aS'Everton'
p798
aa(lp799
F0.5
aF0
aF0
aF0.5
aF0.5
aF1
aNaF0.5
aF1
aF3
aF-0.5
aF1
aF0
aF0
aF-1.5
aF0
aNaF-1
aF-1
aF-3
aF0
aF0
aF0
aF-0.5
aF0
aF0
aNaF0.5
aF0
aF0
aF10.666666666666666
aF1
aF179.99999999999997
aF121
aF60
aF109.33333333333337
aF21.333333333333336
aF-1.3333333333333333
aI868
aF174.82251058010502
aS'H'
aS'H'
ag3
(S'\x07\xda\x03\x07'
tRp800
aS'Everton'
p801
aS'Hull'
p802
aa(lp803
F0
aF0
aF1
aF-1
aNaF-1.5
aF-0.5
aF0
aF0
aF0
aF1
aF-0.5
aF0
aF2
aNaF0.5
aF-0.5
aF1
aF1
aF0
aF0
aF0.5
aF0
aF0
aNaF0
aF1
aF-1
aF-0.33333333333333331
aF0
aF-8
aF-2.6666666666666665
aF-199.99999999999997
aF-58.333333333333343
aF-112.00000000000001
aF63
aF4
aF-0.33333333333333331
aI-3024
aF97.639104184963045
aS'A'
aS'A'
ag3
(S'\x07\xda\x03\x06'
tRp804
aS'Wolves'
p805
aS'Man United'
p806
aa(lp807
F-0.5
aF0.5
aNaF0
aF-0.5
aF0
aNaF0.5
aF-1
aF0
aF1
aF-1.5
aNaF0
aF0.5
aF0
aNaF0
aF0
aF-0.33333333333333331
aF-0.5
aF0
aNaF0
aF0
aF0
aNaF-0.5
aF0.33333333333333331
aF1
aF-5.3333333333333339
aF-1
aF675
aF245.33333333333331
aF50.666666666666671
aF-405
aF-18.666666666666664
aF-0.33333333333333331
aI672
aF283.10486349992709
aS'H'
aS'H'
ag3
(S'\x07\xda\x02\x1c'
tRp808
aS'Tottenham'
p809
aS'Everton'
p810
aa(lp811
F0
aF0
aF1
aF1
aNaF2
aF0.5
aF0
aF-1
aF3
aF1
aF0
aF-2
aF-1
aNaF-1
aF-0.5
aF0
aF0
aF-0.33333333333333331
aF-1
aF0
aF0
aF0
aNaF0
aF0
aF0
aF0.33333333333333331
aF-1.3333333333333333
aF4.3333333333333321
aF4
aF-291
aF-242.66666666666669
aF224
aF-201
aF0
aF0.33333333333333331
aI2520
aF266.43730284713479
aS'H'
aS'H'
ag3
(S'\x07\xda\x02\x17'
tRp812
aS'Man United'
p813
aS'West Ham'
p814
aa(lp815
F0.5
aF0
aF-1
aF0
aNaF0
aNaF0.5
aF0
aF2.6666666666666665
aF-1
aF1
aF0
aF0
aNaF0
aNaF0
aF0.33333333333333331
aF0
aF0.5
aF0
aF1
aF0
aNaF0
aNaF-0.5
aF-0.33333333333333331
aF-1.3333333333333333
aF-24
aF-8
aF-469
aF-45.333333333333329
aF-58.666666666666657
aF385.00000000000006
aF10.666666666666666
aF0
aI-2024
aF44.782088140421742
aS'H'
aS'A'
ag3
(S'\x07\xda\x02\x14'
tRp816
aS'Everton'
p817
aS'Man United'
p818
aa(lp819
F1
aF0.5
aF-1
aF-1
aNaF-2
aF-1
aF1
aF-2.6666666666666665
aF-1.3333333333333333
aF-1
aF-0.5
aF0
aF0
aNaF1
aF0
aF0
aF0
aF0.33333333333333331
aF0
aF0
aF2
aF1
aNaF0
aF1
aF-1
aF1.3333333333333333
aF1
aF-46.666666666666664
aF-7.0000000000000009
aF-840
aF-204.99999999999997
aF-215
aF402.33333333333337
aF4
aF0
aI-1455
aF109.52360384404703
aS'D'
aS'A'
ag3
(S'\x07\xda\x02\n'
tRp820
aS'Aston Villa'
p821
aS'Man United'
p822
aa(lp823
NaF-1
aF-1
aF1
aF-1
aF2
aNaF-1.5
aF0
aF2.6666666666666665
aNaF2
aF0
aF-1
aF1
aF-1
aNaF0
aF0.33333333333333331
aF0
aNaF0
aF1
aF0
aF0
aF0
aNaF0.5
aF-0.33333333333333331
aF-1.3333333333333333
aF-5.3333333333333339
aF-4
aF-462.33333333333337
aF-80.000000000000014
aF-39
aF208.00000000000006
aF-3.6666666666666661
aF0.33333333333333331
aI-2340
aF287.58493307119272
aS'H'
aS'A'
ag3
(S'\x07\xda\x02\n'
tRp824
aS'Everton'
p825
aS'Chelsea'
p826
aa(lp827
F0
aNaF0.5
aF-1
aF1
aF-1
aNaF-0.5
aF-1.6666666666666667
aF2.6666666666666665
aF1
aNaF0.5
aF0
aF-1
aF0
aNaF1
aF0
aF0
aF-1
aNaF-1
aF1
aF0
aF0
aNaF-0.5
aF0.33333333333333331
aF-1.3333333333333333
aF-3.0000000000000009
aF-4
aF-44
aF-68.000000000000014
aF-13.666666666666657
aF0
aF4
aF0
aI657
aF0.98015325743948067
aS'H'
aS'H'
ag3
(S'\x07\xda\x02\x06'
tRp828
aS'Liverpool'
p829
aS'Everton'
p830
aa(lp831
F0
aF-1
aF1
aF1
aNaF1
aF1
aF0
aF3
aF3
aF0
aF1
aF-1
aF-2
aNaF0
aF-1
aF0
aF-1.3333333333333333
aF-3
aF0
aF0
aF0
aF0
aNaF0
aF0
aF0
aF-0.33333333333333331
aF0
aF33
aF3
aF768
aF186.99999999999997
aF84
aF-288
aF-15.999999999999998
aF0
aI2584
aF308.09998599581388
aS'H'
aS'H'
ag3
(S'\x07\xda\x02\x06'
tRp832
aS'Man United'
p833
aS'Portsmouth'
p834
aa(lp835
F0
aF1
aF0
aF-1
aNaF-1
aF-0.5
aF0
aF0
aF1
aF0
aF-1
aF0
aF1
aNaF0
aF0
aF1
aF0
aF-0.33333333333333331
aF0
aF0
aF0
aF0
aNaF0
aF0.5
aF-1
aF0
aF0
aF-9.3333333333333321
aF1
aF-617.66666666666663
aF-111.66666666666669
aF-186.99999999999997
aF111.66666666666669
aF7.0000000000000009
aF-0.33333333333333331
aI-99
aF258.51867563718656
aS'A'
aS'H'
ag3
(S'\x07\xda\x01\x1f'
tRp836
aS'Arsenal'
p837
aS'Man United'
p838
aa(lp839
F1
aF0
aF0
aF-1
aF0
aNaNaF0.5
aF-1
aF0.33333333333333331
aF0
aF0
aF1
aF0
aF1
aNaNaF0
aF1.3333333333333333
aF0.33333333333333331
aF-1
aF0
aF-1
aF1
aF0
aNaNaF-0.5
aF-0.33333333333333331
aF-2.6666666666666665
aF-9
aF-8.3333333333333339
aF282.33333333333337
aF153.33333333333331
aF-113.33333333333334
aF125.00000000000006
aF8
aF0.33333333333333331
aI-357
aF23.975606104337857
aS'A'
aS'A'
ag3
(S'\x07\xda\x01\x1e'
tRp840
aS'Wigan'
p841
aS'Everton'
p842
aa(lp843
F0
aF-1
aF0
aF1
aF0
aF1
aNaNaF1.3333333333333333
aF1.3333333333333333
aF-2
aF1
aF-1
aF-1
aF1
aF-1
aNaNaF-0.33333333333333331
aF-1.3333333333333333
aF1
aF0
aF1
aF0
aF-1
aF0
aNaNaF-1
aF0
aF3.6666666666666661
aF2.6666666666666665
aF405.33333333333337
aF146.66666666666669
aF253.33333333333331
aF-395.00000000000006
aF-10.666666666666666
aF0
aI147
aF193.56559314115574
aS'H'
aS'H'
ag3
(S'\x07\xda\x01\x1b'
tRp844
aS'Everton'
p845
aS'Sunderland'
p846
aa(lp847
F0
aF0
aF1
aF1
aNaF1
aF0
aF0
aF1.3333333333333333
aF3
aF0
aF0
aF-0.5
aF0
aNaF0
aF0
aF-1
aF-0.33333333333333331
aF-0.33333333333333331
aF0
aF0
aF-0.5
aF-1
aNaF0
aF0
aF1
aF-1
aF-1.3333333333333333
aF24
aF3
aF899
aF381.33333333333331
aF160
aF-267.66666666666669
aF-5
aF0.33333333333333331
aI1848
aF130.7157106503052
aS'H'
aS'H'
ag3
(S'\x07\xda\x01\x17'
tRp848
aS'Man United'
p849
aS'Hull'
p850
aa(lp851
F-1
aF0
aF0
aNaF0
aF1
aNaF-1
aF-2.6666666666666665
aF0
aF0
aF1
aF-1
aNaF0
aF0
aNaF0
aF0
aF-0.33333333333333331
aF1
aF-1
aF1
aNaF0
aF-1
aNaF1
aF1.3333333333333333
aF1
aF-18.666666666666664
aF-8
aF243
aF112.00000000000001
aF234.66666666666669
aF85.333333333333314
aF5.3333333333333339
aF0
aI-915
aF50.938602100397503
aS'H'
aS'A'
ag3
(S'\x07\xda\x01\x10'
tRp852
aS'Everton'
p853
aS'Man City'
p854
aa(lp855
F0
aF0
aF1
aF1
aNaF2
aF0.5
aF-1
aF1.3333333333333333
aF1.3333333333333333
aF0
aF0
aF-1
aF0
aNaF-1
aF-0.5
aF0
aF-1.3333333333333333
aF-2.6666666666666665
aF0
aF0
aF0
aF-1
aNaF0
aF0
aF1
aF0
aF0
aF26.666666666666668
aF5.333333333333333
aF589
aF295
aF88.000000000000014
aF-49.333333333333314
aF-9
aF0
aI1536
aF36.46714481489316
aS'H'
aS'H'
ag3
(S'\x07\xda\x01\x10'
tRp856
aS'Man United'
p857
aS'Burnley'
p858
aa(lp859
F0
aF1
aF1
aF0
aF0
aF0
aNaF0
aF2.6666666666666665
aF3
aF1
aF-1
aF0
aF1
aF0
aF0
aNaF1
aF0
aF-0.33333333333333331
aF-1
aF0
aF-1
aF0
aF0
aF0
aNaF-1
aF-1.3333333333333333
aF-1.3333333333333333
aF28.000000000000004
aF2.6666666666666665
aF-141.33333333333337
aF77.333333333333314
aF0
aF-94.999999999999972
aF-4
aF0
aI1197
aF285.11763486171071
aS'D'
aS'H'
ag3
(S'\x07\xda\x01\t'
tRp860
aS'Arsenal'
p861
aS'Everton'
p862
aa(lp863
F0
aF0
aF-1
aF-1
aNaF-1
aF-1
aF1
aF-1
aF0
aF-1
aF-1
aF1
aF0
aNaF0
aF0
aF0
aF-0.33333333333333331
aF-0.33333333333333331
aF1
aF1
aF0
aF1
aNaF0
aF1
aF-1
aF1.3333333333333333
aF0.33333333333333331
aF-20
aF-5
aF-959.99999999999989
aF-287
aF33
aF-80
aF13.333333333333332
aF0
aI-825
aF113.36331103616492
aS'D'
aS'A'
ag3
(S'\x07\xda\x01\t'
tRp864
aS'Birmingham'
p865
aS'Man United'
p866
aa(lp867
F-1
aF0
aF1
aF1
aNaNaF1
aF-1
aF1.3333333333333333
aF1.3333333333333333
aF1
aF0
aF-1
aF0
aNaNaF-1
aF0
aF0
aF-1
aF0
aF0
aF0
aF-1
aNaNaF0
aF1
aF-1.3333333333333333
aF-0.33333333333333331
aF6.666666666666667
aF2.6666666666666665
aF373.33333333333337
aF45
aF58.333333333333329
aF176
aF2.333333333333333
aF0
aI1239
aF25.730718885093015
aS'H'
aS'H'
ag3
(S'\x07\xd9\x0c\x1e'
tRp868
aS'Man United'
p869
aS'Wigan'
p870
aa(lp871
F0
aF0
aF0
aF0
aF-1
aF1
aNaF-1
aF0
aF0
aF-1
aF0
aF-1
aF0
aF1
aF-1
aNaF0
aF-0.33333333333333331
aF-2.6666666666666665
aF1
aF0
aF1
aF-1
aF0
aF0
aNaF1
aF1.6666666666666667
aF1.3333333333333333
aF7.0000000000000009
aF2.6666666666666665
aF197.33333333333337
aF22.666666666666671
aF35
aF240.00000000000006
aF2.333333333333333
aF0
aI-39
aF62.260938877746113
aS'H'
aS'H'
ag3
(S'\x07\xd9\x0c\x1c'
tRp872
aS'Everton'
p873
aS'Burnley'
p874
aa(lp875
F0
aF0
aF-1
aF-1
aNaF0
aF0
aF0
aF-0.33333333333333331
aF-1
aF0
aF0
aF1
aF0
aNaF0
aF0
aF1
aF0
aF-0.33333333333333331
aF0
aF0
aF0
aF1
aNaF0
aF0
aF-1
aF0.33333333333333331
aF1.3333333333333333
aF-3
aF-1.3333333333333333
aF-512
aF-128
aF-108.33333333333333
aF424.33333333333337
aF24
aF0
aI-1080
aF130.7157106503052
aS'A'
aS'A'
ag3
(S'\x07\xd9\x0c\x1b'
tRp876
aS'Hull'
p877
aS'Man United'
p878
aa(lp879
F0
aF1
aF0
aF0
aF0
aF-1
aNaNaF0
aF0.33333333333333331
aF1
aF-1
aF1
aF1
aF-1
aF1
aNaNaF1.3333333333333333
aF-1
aF-1
aF0
aF-1
aF0
aF1
aF0
aNaNaF-2.6666666666666665
aF0
aF-6.666666666666667
aF0
aF-164.00000000000006
aF-13.000000000000014
aF112.00000000000001
aF0
aF12.999999999999998
aF1.3333333333333333
aI117
aF193.56559314115574
aS'D'
aS'H'
ag3
(S'\x07\xd9\x0c\x1a'
tRp880
aS'Sunderland'
p881
aS'Everton'
p882
aa(lp883
F0
aF0
aF0
aF0
aF0
aF0
aNaF-1
aF-3
aF-1.3333333333333333
aF0
aF1
aF-1
aF0
aF0
aF0
aNaF0
aF0.33333333333333331
aF0.33333333333333331
aF1
aF-1
aF1
aF-1
aF0
aF0
aNaF0
aF1.3333333333333333
aF1
aF-3.6666666666666661
aF1
aF-50.666666666666686
aF-45
aF-99
aF355.00000000000006
aF3.6666666666666661
aF0
aI-440
aF129.89172947786224
aS'D'
aS'H'
ag3
(S'\x07\xd9\x0c\x14'
tRp884
aS'Everton'
p885
aS'Birmingham'
p886
aa(lp887
F0
aF1
aF-1
aF-1
aNaF-1
aF0
aF1
aF-1
aF0
aF0
aF-1
aF0
aF0
aNaF0
aF0
aF0
aF-0.33333333333333331
aF-0.33333333333333331
aF0
aF0
aF0
aF1
aNaF1
aF0
aF-1
aF1.3333333333333333
aF0.33333333333333331
aF-13.333333333333332
aF-2.6666666666666665
aF-172
aF-172.33333333333331
aF-123.00000000000001
aF-128.33333333333331
aF2.333333333333333
aF0
aI-840
aF261.76785936155176
aS'H'
aS'A'
ag3
(S'\x07\xd9\x0c\x13'
tRp888
aS'Fulham'
p889
aS'Man United'
p890
aa(lp891
F0
aF0
aF0
aF1
aNaF0
aF1
aF0
aF0
aF1
aF0
aF1
aF0
aF-1
aNaF0
aF0
aF-1
aF0
aF0
aF0
aF0
aF0
aF0
aNaF0
aF-1
aF1
aF0
aF-0.33333333333333331
aF18.333333333333332
aF0
aF529
aF176
aF47
aF-132
aF-18.666666666666664
aF0
aI900
aF97.639104184963045
aS'H'
aS'H'
ag3
(S'\x07\xd9\x0c\x0f'
tRp892
aS'Man United'
p893
aS'Wolves'
p894
aa(lp895
NaF1
aF1
aF0
aF1
aF-1
aNaF1
aF1.3333333333333333
aF2.6666666666666665
aNaF-1
aF0
aF1
aF-1
aF1
aNaF0
aF-1
aF-1.3333333333333333
aNaF0
aF-1
aF0
aF0
aF0
aNaF0
aF-0.33333333333333331
aF0
aF16
aF12
aF192.00000000000006
aF112.00000000000001
aF24.999999999999993
aF-437.33333333333337
aF-5.6666666666666679
aF0
aI1040
aF287.58493307119272
aS'D'
aS'H'
ag3
(S'\x07\xd9\x0c\x0c'
tRp896
aS'Chelsea'
p897
aS'Everton'
p898
aa(lp899
F-1
aF-1
aF1
aF1
aNaF1
aF1
aF0
aF2.6666666666666665
aF3
aF1
aF1
aF0
aF0
aNaF-1
aF0
aF0
aF0
aF-0.33333333333333331
aF0
aF0
aF-1
aF-1
aNaF0
aF-1
aF1
aF-1.3333333333333333
aF-1.3333333333333333
aF32
aF0
aF359.66666666666669
aF214.66666666666669
aF88.333333333333314
aF-156.33333333333331
aF-4.3333333333333321
aF0
aI480
aF109.52360384404703
aS'A'
aS'H'
ag3
(S'\x07\xd9\x0c\x0c'
tRp900
aS'Man United'
p901
aS'Aston Villa'
p902
aa(lp903
F0
aF-1
aNaF0
aF0
aF0
aNaF-1
aF-1.3333333333333333
aF-0.33333333333333331
aF-1
aF1
aNaF0
aF0
aF0
aNaF0
aF3
aF0
aF0
aF0
aNaF0
aF0
aF0
aNaF0
aF-0.33333333333333331
aF1
aF-46.666666666666664
aF-1.3333333333333333
aF-979
aF-475.00000000000006
aF-111.00000000000001
aF402.33333333333337
aF13.333333333333332
aF0
aI-451
aF283.10486349992709
aS'D'
aS'A'
ag3
(S'\x07\xd9\x0c\x06'
tRp904
aS'Everton'
p905
aS'Tottenham'
p906
aa(lp907
F0
aF0
aF-1
aF-1
aNaF-1
aF-1
aF0
aF-1
aF1
aF-1
aF0
aF1
aF1
aNaF1
aF1
aF0
aF0
aF-1
aF0
aF0
aF0
aF0
aNaF0
aF0
aF0
aF0.33333333333333331
aF0
aF10.666666666666668
aF7.0000000000000009
aF-306.66666666666663
aF-118.99999999999997
aF-234.33333333333331
aF226.66666666666669
aF-9.3333333333333321
aF0
aI-765
aF266.43730284713479
aS'A'
aS'A'
ag3
(S'\x07\xd9\x0c\x05'
tRp908
aS'West Ham'
p909
aS'Man United'
p910
aa(lp911
F0
aNaF0
aF0
aF-1
aF1
aNaF0
aF0.33333333333333331
aF0
aF-1
aNaF-1
aF0
aF1
aF0
aNaF-1
aF1
aF-3
aF0
aNaF0
aF-1
aF0
aF0
aNaF0
aF-1.3333333333333333
aF3
aF-3.0000000000000009
aF-1
aF-408
aF-111.00000000000001
aF-85.333333333333343
aF456.00000000000006
aF37.333333333333336
aF-1.3333333333333333
aI-175
aF0.98015325743948067
aS'A'
aS'A'
ag3
(S'\x07\xd9\x0b\x1d'
tRp912
aS'Everton'
p913
aS'Liverpool'
p914
aa(lp915
F0
aF0
aF-1
aF-1
aNaF0
aF-1
aF0
aF-1
aF0
aF-1
aF-1
aF1
aF1
aNaF0
aF1
aF0
aF1
aF0
aF0
aF0
aF0
aF0
aNaF0
aF0
aF-1
aF0
aF0
aF0
aF2.6666666666666665
aF-514.99999999999989
aF-194.33333333333331
aF-157.66666666666669
aF307.66666666666669
aF0
aF0
aI-735
aF308.09998599581388
aS'A'
aS'A'
ag3
(S'\x07\xd9\x0b\x1c'
tRp916
aS'Portsmouth'
p917
aS'Man United'
p918
aa(lp919
F0
aF0
aF0
aF0
aF0
aF0
aNaF0
aF0
aF0
aF1
aF1
aF1
aF0
aF-1
aF0
aNaF1
aF0
aF-1.3333333333333333
aF0
aF0
aF0
aF0
aF0
aF0
aNaF0
aF0
aF1.3333333333333333
aF5.3333333333333339
aF1.6666666666666667
aF151.66666666666669
aF86.333333333333343
aF-7
aF-121.66666666666669
aF-12.999999999999998
aF1
aI-81
aF174.82251058010502
aS'H'
aS'A'
ag3
(S'\x07\xd9\x0b\x19'
tRp920
aS'Hull'
p921
aS'Everton'
p922
aa(lp923
F0
aF0
aF1
aF1
aNaF0
aNaF0
aF0
aF0
aF1
aF1
aF0
aF0
aNaF0
aNaF0
aF1
aF-0.33333333333333331
aF0
aF0
aF0
aF0
aNaF0
aNaF1
aF-0.33333333333333331
aF0.33333333333333331
aF-7.0000000000000009
aF-3
aF359.66666666666669
aF64
aF34.666666666666664
aF-336
aF-4.3333333333333321
aF0
aI400
aF44.782088140421742
aS'H'
aS'H'
ag3
(S'\x07\xd9\x0b\x15'
tRp924
aS'Man United'
p925
aS'Everton'
p926
aa(lp927
NaF1
aF0
aF-1
aNaF-1
aF0
aF1
aF0
aF1.6666666666666667
aNaF-1
aF0
aF0
aNaF1
aF0
aF0
aF0
aF-0.33333333333333331
aNaF0
aF0
aF0
aNaF0
aF0
aF-1
aF0
aF0
aF28.000000000000004
aF1.6666666666666667
aF1292
aF498.66666666666663
aF96
aF-170.66666666666669
aF-1.6666666666666667
aF-0.33333333333333331
aI104
aF262.24830639062515
aS'H'
aS'H'
ag3
(S'\x07\xd9\x0b\x08'
tRp928
aS'Chelsea'
p929
aS'Man United'
p930
aa(lp931
F0
aF0
aF0
aF0
aF0
aF-1
aNaF0
aF0.33333333333333331
aF0
aF0
aF1
aF1
aF1
aF0
aF1
aNaF0
aF-0.33333333333333331
aF-1.3333333333333333
aF0
aF0
aF0
aF0
aF0
aF0
aNaF1
aF0
aF1.3333333333333333
aF6.666666666666667
aF1.6666666666666667
aF138.33333333333337
aF61.333333333333343
aF18.666666666666664
aF213.33333333333337
aF18.333333333333332
aF1
aI-44
aF293.8689905604333
aS'A'
aS'H'
ag3
(S'\x07\xd9\x0b\x08'
tRp932
aS'West Ham'
p933
aS'Everton'
p934
aa(lp935
F-1
aF-1
aF0
aF0
aF0
aF1
aNaF0
aF-0.33333333333333331
aF0
aF0
aF0
aF0
aF0
aF0
aF-1
aNaF0
aF0.33333333333333331
aF-0.33333333333333331
aF0
aF0
aF0
aF-1
aF0
aF0
aNaF0
aF0
aF1
aF0
aF-1
aF651.66666666666674
aF265
aF72
aF-449.66666666666663
aF-5.3333333333333339
aF0
aI-168
aF126.23065894863628
aS'D'
aS'H'
ag3
(S'\x07\xd9\n\x1f'
tRp936
aS'Everton'
p937
aS'Aston Villa'
p938
aa(lp939
F0
aF0
aF1
aF1
aNaF1
aF0
aF0
aF0
aF1.3333333333333333
aF-1
aF1
aF0
aF-1
aNaF0
aF-1
aF-1
aF-1
aF-3
aF0
aF0
aF0
aF0
aNaF0
aF0
aF1
aF0.33333333333333331
aF0.33333333333333331
aF-3.0000000000000009
aF-7.0000000000000009
aF264.33333333333331
aF72
aF255.99999999999997
aF-25
aF0
aF0.33333333333333331
aI384
aF32.262740424616027
aS'H'
aS'H'
ag3
(S'\x07\xd9\n\x1f'
tRp940
aS'Man United'
p941
aS'Blackburn'
p942
aa(lp943
F0
aF0
aF0
aF0
aF0
aF-1
aNaF0
aF0
aF-0.5
aF0
aF1
aF0
aF0
aF1
aF0
aNaF1
aF0.33333333333333331
aF-0.5
aF0
aF0
aF1
aF0
aF0
aF0
aNaF0
aF-1
aF2
aF5.3333333333333339
aF1
aF-344.00000000000006
aF-166.66666666666666
aF-143
aF272.00000000000006
aF-3.0000000000000009
aF0
aI-57
aF32.567376549038251
aS'H'
aS'A'
ag3
(S'\x07\xd9\n\x19'
tRp944
aS'Bolton'
p945
aS'Everton'
p946
aa(lp947
F0
aNaF-1
aF-1
aNaF-1
aF0
aF0
aF-1
aF0
aF1
aNaF1
aF0
aNaF0
aF0
aF1
aF1.3333333333333333
aF0
aF0
aNaF0
aF0
aNaF0
aF0
aF-1
aF-0.33333333333333331
aF0
aF0
aF0
aF184
aF0
aF-124
aF260.00000000000006
aF0
aF0
aI-259
aF44.466125065948304
aS'H'
aS'A'
ag3
(S'\x07\xd9\n\x19'
tRp948
aS'Liverpool'
p949
aS'Man United'
p950
aa(lp951
F0
aF0
aF0
aF0
aF0
aF0
aNaF0
aF1
aF0.5
aF0
aF0
aF0
aF-1
aF0
aF0
aNaF-1
aF-1.3333333333333333
aF-2
aF0
aF0
aF0
aF0
aF0
aF0
aNaF0
aF0.33333333333333331
aF0.5
aF3.0000000000000009
aF1
aF490.66666666666669
aF298.66666666666663
aF56.000000000000014
aF93.333333333333314
aF0
aF0
aI51
aF109.68259618137256
aS'D'
aS'H'
ag3
(S'\x07\xd9\n\x11'
tRp952
aS'Everton'
p953
aS'Wolves'
p954
aa(lp955
F0
aF0
aF1
aF1
aNaF1
aF0
aF0
aF1
aF-1.5
aF0
aF-1
aF0
aF0
aNaF0
aF0
aF-1
aF0
aF0
aF0
aF0
aF-1
aF0
aNaF0
aF0
aF1
aF-1
aF0.5
aF12.999999999999998
aF-1
aF504
aF135
aF285
aF-96
aF0
aF0
aI297
aF20.773967847011392
aS'H'
aS'H'
ag3
(S'\x07\xd9\n\x11'
tRp956
aS'Man United'
p957
aS'Bolton'
p958
aa(lp959
F0
aF0
aF0
aF0
aF0
aF1
aNaF-1
aF1.3333333333333333
aF1
aF-1
aF-1
aF0
aF0
aF-1
aF0
aNaF0
aF-1
aF0
aF0
aF0
aF0
aF0
aF0
aF0
aNaF0
aF-0.33333333333333331
aF-1
aF7.0000000000000009
aF2.6666666666666665
aF346.66666666666669
aF181.33333333333334
aF27
aF225
aF-6.666666666666667
aF0
aI17
aF72.664635257232376
aS'D'
aS'H'
ag3
(S'\x07\xd9\n\x04'
tRp960
aS'Everton'
p961
aS'Stoke'
p962
aa(lp963
F0
aF0
aF1
aF1
aNaF1
aF0
aNaF1.6666666666666667
aF1
aF-1
aF0
aF0
aF0
aNaF0
aF0
aNaF-0.33333333333333331
aF-2
aF0
aF0
aF0
aF0
aNaF0
aF0
aNaF0
aF0
aF-6.3333333333333357
aF0
aF658.66666666666663
aF224
aF135
aF-435
aF-3.6666666666666661
aF0.33333333333333331
aI180
aF171.74840979274185
aS'D'
aS'H'
ag3
(S'\x07\xd9\n\x03'
tRp964
aS'Man United'
p965
aS'Sunderland'
p966
aa(lp967
F0
aF0
aF-1
aF-1
aNaF-1
aF0
aF1
aF-1.6666666666666667
aF-0.5
aF1
aF1
aF0
aF0
aNaF0
aF0
aF0
aF0.33333333333333331
aF0.5
aF0
aF0
aF0
aF0
aNaF0
aF0
aF0
aF0.33333333333333331
aF0
aF-21.5
aF-3.166666666666667
aF-479
aF-213
aF-66.666666666666657
aF-29
aF0.33333333333333393
aF-0.5
aI-161
aF53.323400364781961
aS'A'
aS'A'
ag3
(S'\x07\xd9\t\x1a'
tRp968
aS'Stoke'
p969
aS'Man United'
p970
aa.